
EnvironmentControl.elf:     file format elf32-avr

Sections:
Idx Name          Size      VMA       LMA       File off  Algn
  0 .data         00000074  00800100  00002e0a  00002e9e  2**0
                  CONTENTS, ALLOC, LOAD, DATA
  1 .text         00002e0a  00000000  00000000  00000094  2**1
                  CONTENTS, ALLOC, LOAD, READONLY, CODE
  2 .bss          00000110  00800174  00800174  00002f12  2**0
                  ALLOC
  3 .comment      00000030  00000000  00000000  00002f12  2**0
                  CONTENTS, READONLY
  4 .note.gnu.avr.deviceinfo 00000040  00000000  00000000  00002f44  2**2
                  CONTENTS, READONLY
  5 .debug_aranges 000000d0  00000000  00000000  00002f84  2**0
                  CONTENTS, READONLY, DEBUGGING
  6 .debug_info   0000147d  00000000  00000000  00003054  2**0
                  CONTENTS, READONLY, DEBUGGING
  7 .debug_abbrev 00000620  00000000  00000000  000044d1  2**0
                  CONTENTS, READONLY, DEBUGGING
  8 .debug_line   00000792  00000000  00000000  00004af1  2**0
                  CONTENTS, READONLY, DEBUGGING
  9 .debug_frame  000003ac  00000000  00000000  00005284  2**2
                  CONTENTS, READONLY, DEBUGGING
 10 .debug_str    00000776  00000000  00000000  00005630  2**0
                  CONTENTS, READONLY, DEBUGGING
 11 .debug_loc    00000c8a  00000000  00000000  00005da6  2**0
                  CONTENTS, READONLY, DEBUGGING
 12 .debug_ranges 000000e0  00000000  00000000  00006a30  2**0
                  CONTENTS, READONLY, DEBUGGING

Disassembly of section .text:

00000000 <__vectors>:
       0:	0c 94 62 00 	jmp	0xc4	; 0xc4 <__ctors_end>
       4:	0c 94 8a 00 	jmp	0x114	; 0x114 <__bad_interrupt>
       8:	0c 94 8a 00 	jmp	0x114	; 0x114 <__bad_interrupt>
       c:	0c 94 8a 00 	jmp	0x114	; 0x114 <__bad_interrupt>
      10:	0c 94 8a 00 	jmp	0x114	; 0x114 <__bad_interrupt>
      14:	0c 94 8a 00 	jmp	0x114	; 0x114 <__bad_interrupt>
      18:	0c 94 8a 00 	jmp	0x114	; 0x114 <__bad_interrupt>
      1c:	0c 94 8a 00 	jmp	0x114	; 0x114 <__bad_interrupt>
      20:	0c 94 8a 00 	jmp	0x114	; 0x114 <__bad_interrupt>
      24:	0c 94 8a 00 	jmp	0x114	; 0x114 <__bad_interrupt>
      28:	0c 94 8a 00 	jmp	0x114	; 0x114 <__bad_interrupt>
      2c:	0c 94 85 11 	jmp	0x230a	; 0x230a <__vector_11>
      30:	0c 94 8a 00 	jmp	0x114	; 0x114 <__bad_interrupt>
      34:	0c 94 8a 00 	jmp	0x114	; 0x114 <__bad_interrupt>
      38:	0c 94 8a 00 	jmp	0x114	; 0x114 <__bad_interrupt>
      3c:	0c 94 8a 00 	jmp	0x114	; 0x114 <__bad_interrupt>
      40:	0c 94 11 0b 	jmp	0x1622	; 0x1622 <__vector_16>
      44:	0c 94 8a 00 	jmp	0x114	; 0x114 <__bad_interrupt>
      48:	0c 94 9d 06 	jmp	0xd3a	; 0xd3a <__vector_18>
      4c:	0c 94 cb 06 	jmp	0xd96	; 0xd96 <__vector_19>
      50:	0c 94 8a 00 	jmp	0x114	; 0x114 <__bad_interrupt>
      54:	0c 94 8a 00 	jmp	0x114	; 0x114 <__bad_interrupt>
      58:	0c 94 8a 00 	jmp	0x114	; 0x114 <__bad_interrupt>
      5c:	0c 94 8a 00 	jmp	0x114	; 0x114 <__bad_interrupt>
      60:	0c 94 8a 00 	jmp	0x114	; 0x114 <__bad_interrupt>
      64:	0c 94 8a 00 	jmp	0x114	; 0x114 <__bad_interrupt>

00000068 <__trampolines_end>:
      68:	00 00       	nop
      6a:	00 00       	nop
      6c:	24 00       	.word	0x0024	; ????
      6e:	27 00       	.word	0x0027	; ????
      70:	2a 00       	.word	0x002a	; ????

00000072 <port_to_output_PGM>:
      72:	00 00 00 00 25 00 28 00 2b 00                       ....%.(.+.

0000007c <port_to_input_PGM>:
      7c:	00 00 00 00 23 00 26 00 29 00                       ....#.&.).

00000086 <digital_pin_to_port_PGM>:
      86:	04 04 04 04 04 04 04 04 02 02 02 02 02 02 03 03     ................
      96:	03 03 03 03                                         ....

0000009a <digital_pin_to_bit_mask_PGM>:
      9a:	01 02 04 08 10 20 40 80 01 02 04 08 10 20 01 02     ..... @...... ..
      aa:	04 08 10 20                                         ... 

000000ae <digital_pin_to_timer_PGM>:
      ae:	00 00 00 08 00 02 01 00 00 03 04 07 00 00 00 00     ................
      be:	00 00 00 00                                         ....

000000c2 <__ctors_start>:
      c2:	34 07       	cpc	r19, r20

000000c4 <__ctors_end>:
      c4:	11 24       	eor	r1, r1
      c6:	1f be       	out	0x3f, r1	; 63
      c8:	cf ef       	ldi	r28, 0xFF	; 255
      ca:	d8 e0       	ldi	r29, 0x08	; 8
      cc:	de bf       	out	0x3e, r29	; 62
      ce:	cd bf       	out	0x3d, r28	; 61

000000d0 <__do_copy_data>:
      d0:	11 e0       	ldi	r17, 0x01	; 1
      d2:	a0 e0       	ldi	r26, 0x00	; 0
      d4:	b1 e0       	ldi	r27, 0x01	; 1
      d6:	ea e0       	ldi	r30, 0x0A	; 10
      d8:	fe e2       	ldi	r31, 0x2E	; 46
      da:	02 c0       	rjmp	.+4      	; 0xe0 <__do_copy_data+0x10>
      dc:	05 90       	lpm	r0, Z+
      de:	0d 92       	st	X+, r0
      e0:	a4 37       	cpi	r26, 0x74	; 116
      e2:	b1 07       	cpc	r27, r17
      e4:	d9 f7       	brne	.-10     	; 0xdc <__do_copy_data+0xc>

000000e6 <__do_clear_bss>:
      e6:	22 e0       	ldi	r18, 0x02	; 2
      e8:	a4 e7       	ldi	r26, 0x74	; 116
      ea:	b1 e0       	ldi	r27, 0x01	; 1
      ec:	01 c0       	rjmp	.+2      	; 0xf0 <.do_clear_bss_start>

000000ee <.do_clear_bss_loop>:
      ee:	1d 92       	st	X+, r1

000000f0 <.do_clear_bss_start>:
      f0:	a4 38       	cpi	r26, 0x84	; 132
      f2:	b2 07       	cpc	r27, r18
      f4:	e1 f7       	brne	.-8      	; 0xee <.do_clear_bss_loop>

000000f6 <__do_global_ctors>:
      f6:	10 e0       	ldi	r17, 0x00	; 0
      f8:	c2 e6       	ldi	r28, 0x62	; 98
      fa:	d0 e0       	ldi	r29, 0x00	; 0
      fc:	04 c0       	rjmp	.+8      	; 0x106 <__do_global_ctors+0x10>
      fe:	21 97       	sbiw	r28, 0x01	; 1
     100:	fe 01       	movw	r30, r28
     102:	0e 94 9d 14 	call	0x293a	; 0x293a <__tablejump2__>
     106:	c1 36       	cpi	r28, 0x61	; 97
     108:	d1 07       	cpc	r29, r17
     10a:	c9 f7       	brne	.-14     	; 0xfe <__do_global_ctors+0x8>
     10c:	0e 94 4e 01 	call	0x29c	; 0x29c <main>
     110:	0c 94 03 17 	jmp	0x2e06	; 0x2e06 <_exit>

00000114 <__bad_interrupt>:
     114:	0c 94 00 00 	jmp	0	; 0x0 <__vectors>

00000118 <_Z4TuneRmS_S_>:
	{
	check=0;
	}
	return avg;
	
}
     118:	cf 92       	push	r12
     11a:	df 92       	push	r13
     11c:	ef 92       	push	r14
     11e:	ff 92       	push	r15
     120:	0f 93       	push	r16
     122:	1f 93       	push	r17
     124:	fc 01       	movw	r30, r24
     126:	00 81       	ld	r16, Z
     128:	11 81       	ldd	r17, Z+1	; 0x01
     12a:	22 81       	ldd	r18, Z+2	; 0x02
     12c:	33 81       	ldd	r19, Z+3	; 0x03
     12e:	fb 01       	movw	r30, r22
     130:	c0 80       	ld	r12, Z
     132:	d1 80       	ldd	r13, Z+1	; 0x01
     134:	e2 80       	ldd	r14, Z+2	; 0x02
     136:	f3 80       	ldd	r15, Z+3	; 0x03
     138:	0c 15       	cp	r16, r12
     13a:	1d 05       	cpc	r17, r13
     13c:	2e 05       	cpc	r18, r14
     13e:	3f 05       	cpc	r19, r15
     140:	20 f4       	brcc	.+8      	; 0x14a <_Z4TuneRmS_S_+0x32>
     142:	00 83       	st	Z, r16
     144:	11 83       	std	Z+1, r17	; 0x01
     146:	22 83       	std	Z+2, r18	; 0x02
     148:	33 83       	std	Z+3, r19	; 0x03
     14a:	fc 01       	movw	r30, r24
     14c:	80 81       	ld	r24, Z
     14e:	91 81       	ldd	r25, Z+1	; 0x01
     150:	a2 81       	ldd	r26, Z+2	; 0x02
     152:	b3 81       	ldd	r27, Z+3	; 0x03
     154:	fa 01       	movw	r30, r20
     156:	00 81       	ld	r16, Z
     158:	11 81       	ldd	r17, Z+1	; 0x01
     15a:	22 81       	ldd	r18, Z+2	; 0x02
     15c:	33 81       	ldd	r19, Z+3	; 0x03
     15e:	08 17       	cp	r16, r24
     160:	19 07       	cpc	r17, r25
     162:	2a 07       	cpc	r18, r26
     164:	3b 07       	cpc	r19, r27
     166:	20 f4       	brcc	.+8      	; 0x170 <_Z4TuneRmS_S_+0x58>
     168:	80 83       	st	Z, r24
     16a:	91 83       	std	Z+1, r25	; 0x01
     16c:	a2 83       	std	Z+2, r26	; 0x02
     16e:	b3 83       	std	Z+3, r27	; 0x03
     170:	1f 91       	pop	r17
     172:	0f 91       	pop	r16
     174:	ff 90       	pop	r15
     176:	ef 90       	pop	r14
     178:	df 90       	pop	r13
     17a:	cf 90       	pop	r12
     17c:	08 95       	ret

0000017e <_Z17TempertureCelciusPff>:
float TempertureCelcius(float * _data, float _temp)
{
     17e:	cf 92       	push	r12
     180:	df 92       	push	r13
     182:	ef 92       	push	r14
     184:	ff 92       	push	r15
     186:	0f 93       	push	r16
     188:	1f 93       	push	r17
     18a:	cf 93       	push	r28
     18c:	df 93       	push	r29
static unsigned int check=0;
_data[check]= _temp;
     18e:	e0 91 76 01 	lds	r30, 0x0176
     192:	f0 91 77 01 	lds	r31, 0x0177
     196:	ee 0f       	add	r30, r30
     198:	ff 1f       	adc	r31, r31
     19a:	ee 0f       	add	r30, r30
     19c:	ff 1f       	adc	r31, r31
     19e:	e8 0f       	add	r30, r24
     1a0:	f9 1f       	adc	r31, r25
     1a2:	40 83       	st	Z, r20
     1a4:	51 83       	std	Z+1, r21	; 0x01
     1a6:	62 83       	std	Z+2, r22	; 0x02
     1a8:	73 83       	std	Z+3, r23	; 0x03
     1aa:	ec 01       	movw	r28, r24
     1ac:	8c 01       	movw	r16, r24
     1ae:	08 5d       	subi	r16, 0xD8	; 216
     1b0:	1f 4f       	sbci	r17, 0xFF	; 255
++check;

float avg;
for(unsigned int i=0;i<10;++i)
{
	avg+=_data[i];
     1b2:	29 91       	ld	r18, Y+
     1b4:	39 91       	ld	r19, Y+
     1b6:	49 91       	ld	r20, Y+
     1b8:	59 91       	ld	r21, Y+
     1ba:	c7 01       	movw	r24, r14
     1bc:	b6 01       	movw	r22, r12
     1be:	0e 94 b3 14 	call	0x2966	; 0x2966 <__addsf3>
     1c2:	6b 01       	movw	r12, r22
     1c4:	7c 01       	movw	r14, r24
static unsigned int check=0;
_data[check]= _temp;
++check;

float avg;
for(unsigned int i=0;i<10;++i)
     1c6:	c0 17       	cp	r28, r16
     1c8:	d1 07       	cpc	r29, r17
     1ca:	99 f7       	brne	.-26     	; 0x1b2 <_Z17TempertureCelciusPff+0x34>
{
	avg+=_data[i];
}
avg/=10;
check=0;
     1cc:	10 92 77 01 	sts	0x0177, r1
     1d0:	10 92 76 01 	sts	0x0176, r1
float avg;
for(unsigned int i=0;i<10;++i)
{
	avg+=_data[i];
}
avg/=10;
     1d4:	20 e0       	ldi	r18, 0x00	; 0
     1d6:	30 e0       	ldi	r19, 0x00	; 0
     1d8:	40 e2       	ldi	r20, 0x20	; 32
     1da:	51 e4       	ldi	r21, 0x41	; 65
     1dc:	0e 94 24 15 	call	0x2a48	; 0x2a48 <__divsf3>
if(check==10)
{
	check=0;
}
float degC=0.0;
degC=((avg*0.004882814)-0.5)*100.0;
     1e0:	23 e0       	ldi	r18, 0x03	; 3
     1e2:	30 e0       	ldi	r19, 0x00	; 0
     1e4:	40 ea       	ldi	r20, 0xA0	; 160
     1e6:	5b e3       	ldi	r21, 0x3B	; 59
     1e8:	0e 94 83 16 	call	0x2d06	; 0x2d06 <__mulsf3>
     1ec:	20 e0       	ldi	r18, 0x00	; 0
     1ee:	30 e0       	ldi	r19, 0x00	; 0
     1f0:	40 e0       	ldi	r20, 0x00	; 0
     1f2:	5f e3       	ldi	r21, 0x3F	; 63
     1f4:	0e 94 b2 14 	call	0x2964	; 0x2964 <__subsf3>
     1f8:	20 e0       	ldi	r18, 0x00	; 0
     1fa:	30 e0       	ldi	r19, 0x00	; 0
     1fc:	48 ec       	ldi	r20, 0xC8	; 200
     1fe:	52 e4       	ldi	r21, 0x42	; 66
     200:	0e 94 83 16 	call	0x2d06	; 0x2d06 <__mulsf3>
//float answer[2];
//answer[0]=degC;
//answer[1]=(degC*(9,0/5.0)+32.0);
//return answer;

}
     204:	df 91       	pop	r29
     206:	cf 91       	pop	r28
     208:	1f 91       	pop	r17
     20a:	0f 91       	pop	r16
     20c:	ff 90       	pop	r15
     20e:	ef 90       	pop	r14
     210:	df 90       	pop	r13
     212:	cf 90       	pop	r12
     214:	08 95       	ret

00000216 <_Z11TempertureFPfff>:
float TempertureF(float * _data, float _temp,float cel)
{
     216:	cf 92       	push	r12
     218:	df 92       	push	r13
     21a:	ef 92       	push	r14
     21c:	ff 92       	push	r15
     21e:	0f 93       	push	r16
     220:	1f 93       	push	r17
     222:	68 01       	movw	r12, r16
     224:	79 01       	movw	r14, r18
	static unsigned int check=0;
	_data[check]= _temp;
     226:	20 91 74 01 	lds	r18, 0x0174
     22a:	30 91 75 01 	lds	r19, 0x0175
     22e:	22 0f       	add	r18, r18
     230:	33 1f       	adc	r19, r19
     232:	22 0f       	add	r18, r18
     234:	33 1f       	adc	r19, r19
     236:	82 0f       	add	r24, r18
     238:	93 1f       	adc	r25, r19
     23a:	fc 01       	movw	r30, r24
     23c:	40 83       	st	Z, r20
     23e:	51 83       	std	Z+1, r21	; 0x01
     240:	62 83       	std	Z+2, r22	; 0x02
     242:	73 83       	std	Z+3, r23	; 0x03
	for(unsigned int i=0;i<10;++i)
	{
		avg+=_data[i];
	}
	avg/=10;
	check=0;
     244:	10 92 75 01 	sts	0x0175, r1
     248:	10 92 74 01 	sts	0x0174, r1
	if(check==10)
	{
		check=0;
	}
	float degF=0.0;
	degF=(cel*(9,0/5.0)+32.0);
     24c:	20 e0       	ldi	r18, 0x00	; 0
     24e:	30 e0       	ldi	r19, 0x00	; 0
     250:	a9 01       	movw	r20, r18
     252:	c7 01       	movw	r24, r14
     254:	b6 01       	movw	r22, r12
     256:	0e 94 83 16 	call	0x2d06	; 0x2d06 <__mulsf3>
     25a:	20 e0       	ldi	r18, 0x00	; 0
     25c:	30 e0       	ldi	r19, 0x00	; 0
     25e:	40 e0       	ldi	r20, 0x00	; 0
     260:	52 e4       	ldi	r21, 0x42	; 66
     262:	0e 94 b3 14 	call	0x2966	; 0x2966 <__addsf3>
	//float answer[2];
	//answer[0]=degC;
	//answer[1]=(degC*(9,0/5.0)+32.0);
	//return answer;

}
     266:	1f 91       	pop	r17
     268:	0f 91       	pop	r16
     26a:	ff 90       	pop	r15
     26c:	ef 90       	pop	r14
     26e:	df 90       	pop	r13
     270:	cf 90       	pop	r12
     272:	08 95       	ret

00000274 <_Z8Debouncei>:
bool Debounce(int _pin )
{
     274:	1f 93       	push	r17
     276:	cf 93       	push	r28
     278:	df 93       	push	r29
     27a:	18 2f       	mov	r17, r24
     27c:	c8 ee       	ldi	r28, 0xE8	; 232
     27e:	d3 e0       	ldi	r29, 0x03	; 3
	for(int i=0;i<1000;++i)
	{
		if(digitalRead(_pin)==HIGH)
     280:	81 2f       	mov	r24, r17
     282:	0e 94 f7 0e 	call	0x1dee	; 0x1dee <digitalRead>
     286:	01 97       	sbiw	r24, 0x01	; 1
     288:	21 f0       	breq	.+8      	; 0x292 <_Z8Debouncei+0x1e>
     28a:	21 97       	sbiw	r28, 0x01	; 1
	//return answer;

}
bool Debounce(int _pin )
{
	for(int i=0;i<1000;++i)
     28c:	c9 f7       	brne	.-14     	; 0x280 <_Z8Debouncei+0xc>
		{
			return false;
		}
		
	}
	return true;
     28e:	81 e0       	ldi	r24, 0x01	; 1
     290:	01 c0       	rjmp	.+2      	; 0x294 <_Z8Debouncei+0x20>
{
	for(int i=0;i<1000;++i)
	{
		if(digitalRead(_pin)==HIGH)
		{
			return false;
     292:	80 e0       	ldi	r24, 0x00	; 0
		}
		
	}
	return true;
}
     294:	df 91       	pop	r29
     296:	cf 91       	pop	r28
     298:	1f 91       	pop	r17
     29a:	08 95       	ret

0000029c <main>:
int main(void)
{
     29c:	cf 93       	push	r28
     29e:	df 93       	push	r29
     2a0:	cd b7       	in	r28, 0x3d	; 61
     2a2:	de b7       	in	r29, 0x3e	; 62
     2a4:	c7 54       	subi	r28, 0x47	; 71
     2a6:	d1 09       	sbc	r29, r1
     2a8:	0f b6       	in	r0, 0x3f	; 63
     2aa:	f8 94       	cli
     2ac:	de bf       	out	0x3e, r29	; 62
     2ae:	0f be       	out	0x3f, r0	; 63
     2b0:	cd bf       	out	0x3d, r28	; 61
	init();
     2b2:	0e 94 af 0b 	call	0x175e	; 0x175e <init>
	int buttonstate;
	int lastbuttonstate;
	uint32_t mappedLevel;
	uint32_t avg;
	
	uint32_t lightlevel, high=255, low= 0;
     2b6:	8f ef       	ldi	r24, 0xFF	; 255
     2b8:	90 e0       	ldi	r25, 0x00	; 0
     2ba:	a0 e0       	ldi	r26, 0x00	; 0
     2bc:	b0 e0       	ldi	r27, 0x00	; 0
     2be:	8d a7       	std	Y+45, r24	; 0x2d
     2c0:	9e a7       	std	Y+46, r25	; 0x2e
     2c2:	af a7       	std	Y+47, r26	; 0x2f
     2c4:	b8 ab       	std	Y+48, r27	; 0x30
     2c6:	19 a6       	std	Y+41, r1	; 0x29
     2c8:	1a a6       	std	Y+42, r1	; 0x2a
     2ca:	1b a6       	std	Y+43, r1	; 0x2b
     2cc:	1c a6       	std	Y+44, r1	; 0x2c
	pinMode(temp_button,INPUT_PULLUP);
     2ce:	62 e0       	ldi	r22, 0x02	; 2
     2d0:	88 e0       	ldi	r24, 0x08	; 8
     2d2:	0e 94 49 0d 	call	0x1a92	; 0x1a92 <pinMode>
	pinMode(ledred,OUTPUT);
     2d6:	61 e0       	ldi	r22, 0x01	; 1
     2d8:	86 e0       	ldi	r24, 0x06	; 6
     2da:	0e 94 49 0d 	call	0x1a92	; 0x1a92 <pinMode>
	pinMode(ledblue,OUTPUT);
     2de:	61 e0       	ldi	r22, 0x01	; 1
     2e0:	85 e0       	ldi	r24, 0x05	; 5
     2e2:	0e 94 49 0d 	call	0x1a92	; 0x1a92 <pinMode>
	digitalWrite(ledred,HIGH);
     2e6:	61 e0       	ldi	r22, 0x01	; 1
     2e8:	86 e0       	ldi	r24, 0x06	; 6
     2ea:	0e 94 70 0e 	call	0x1ce0	; 0x1ce0 <digitalWrite>
	digitalWrite(ledblue,LOW);
     2ee:	60 e0       	ldi	r22, 0x00	; 0
     2f0:	85 e0       	ldi	r24, 0x05	; 5
     2f2:	0e 94 70 0e 	call	0x1ce0	; 0x1ce0 <digitalWrite>
	Servo myservo;
     2f6:	ce 01       	movw	r24, r28
     2f8:	c5 96       	adiw	r24, 0x35	; 53
     2fa:	0e 94 19 12 	call	0x2432	; 0x2432 <_ZN5ServoC1Ev>
	myservo.attach(9);
     2fe:	69 e0       	ldi	r22, 0x09	; 9
     300:	70 e0       	ldi	r23, 0x00	; 0
     302:	ce 01       	movw	r24, r28
     304:	c5 96       	adiw	r24, 0x35	; 53
     306:	0e 94 4b 12 	call	0x2496	; 0x2496 <_ZN5Servo6attachEi>
	uint32_t timer=millis();
     30a:	0e 94 83 0b 	call	0x1706	; 0x1706 <millis>
     30e:	1b 01       	movw	r2, r22
     310:	2c 01       	movw	r4, r24
  public:
    inline HardwareSerial(
      volatile uint8_t *ubrrh, volatile uint8_t *ubrrl,
      volatile uint8_t *ucsra, volatile uint8_t *ucsrb,
      volatile uint8_t *ucsrc, volatile uint8_t *udr);
    void begin(unsigned long baud) { begin(baud, SERIAL_8N1); }
     312:	26 e0       	ldi	r18, 0x06	; 6
     314:	40 e0       	ldi	r20, 0x00	; 0
     316:	52 ec       	ldi	r21, 0xC2	; 194
     318:	61 e0       	ldi	r22, 0x01	; 1
     31a:	70 e0       	ldi	r23, 0x00	; 0
     31c:	88 e7       	ldi	r24, 0x78	; 120
     31e:	91 e0       	ldi	r25, 0x01	; 1
     320:	0e 94 46 03 	call	0x68c	; 0x68c <_ZN14HardwareSerial5beginEmh>
     324:	24 96       	adiw	r28, 0x04	; 4
     326:	cc ae       	std	Y+60, r12	; 0x3c
     328:	dd ae       	std	Y+61, r13	; 0x3d
     32a:	ee ae       	std	Y+62, r14	; 0x3e
     32c:	ff ae       	std	Y+63, r15	; 0x3f
     32e:	24 97       	sbiw	r28, 0x04	; 4
     330:	c8 ac       	ldd	r12, Y+56	; 0x38
     332:	d9 ac       	ldd	r13, Y+57	; 0x39
     334:	ea ac       	ldd	r14, Y+58	; 0x3a
     336:	fb ac       	ldd	r15, Y+59	; 0x3b
     338:	79 ae       	std	Y+57, r7	; 0x39
     33a:	68 ae       	std	Y+56, r6	; 0x38
     33c:	32 01       	movw	r6, r4
     33e:	21 01       	movw	r4, r2
     340:	25 96       	adiw	r28, 0x05	; 5
     342:	af ae       	std	Y+63, r10	; 0x3f
     344:	25 97       	sbiw	r28, 0x05	; 5
     346:	26 96       	adiw	r28, 0x06	; 6
     348:	bf ae       	std	Y+63, r11	; 0x3f
     34a:	26 97       	sbiw	r28, 0x06	; 6
     34c:	02 c0       	rjmp	.+4      	; 0x352 <main+0xb6>
		
	}
	return true;
}
int main(void)
{
     34e:	39 ae       	std	Y+57, r3	; 0x39
     350:	28 ae       	std	Y+56, r2	; 0x38
	Serial.begin(115200);
	/* Replace with your application code */
	while (true)
	{
	lastbuttonstate=buttonstate;
	buttonstate=Debounce(temp_button);
     352:	88 e0       	ldi	r24, 0x08	; 8
     354:	90 e0       	ldi	r25, 0x00	; 0
     356:	0e 94 3a 01 	call	0x274	; 0x274 <_Z8Debouncei>
     35a:	28 2e       	mov	r2, r24
     35c:	31 2c       	mov	r3, r1
	tempdata=analogRead(temp);
     35e:	80 e0       	ldi	r24, 0x00	; 0
     360:	0e 94 3d 0c 	call	0x187a	; 0x187a <analogRead>
     364:	4c 01       	movw	r8, r24
		if((timer+20)<millis())
     366:	0e 94 83 0b 	call	0x1706	; 0x1706 <millis>
     36a:	93 01       	movw	r18, r6
     36c:	82 01       	movw	r16, r4
     36e:	0c 5e       	subi	r16, 0xEC	; 236
     370:	1f 4f       	sbci	r17, 0xFF	; 255
     372:	2f 4f       	sbci	r18, 0xFF	; 255
     374:	3f 4f       	sbci	r19, 0xFF	; 255
     376:	06 17       	cp	r16, r22
     378:	17 07       	cpc	r17, r23
     37a:	28 07       	cpc	r18, r24
     37c:	39 07       	cpc	r19, r25
     37e:	08 f0       	brcs	.+2      	; 0x382 <main+0xe6>
     380:	a8 c0       	rjmp	.+336    	; 0x4d2 <__FUSE_REGION_LENGTH__+0xd2>
		{
			timer=millis();
     382:	0e 94 83 0b 	call	0x1706	; 0x1706 <millis>
     386:	2b 01       	movw	r4, r22
     388:	3c 01       	movw	r6, r24
			lightlevel =analogRead(buttonred);
     38a:	81 e0       	ldi	r24, 0x01	; 1
     38c:	0e 94 3d 0c 	call	0x187a	; 0x187a <analogRead>
     390:	09 2e       	mov	r0, r25
     392:	00 0c       	add	r0, r0
     394:	aa 0b       	sbc	r26, r26
     396:	bb 0b       	sbc	r27, r27
     398:	89 ab       	std	Y+49, r24	; 0x31
     39a:	9a ab       	std	Y+50, r25	; 0x32
     39c:	ab ab       	std	Y+51, r26	; 0x33
     39e:	bc ab       	std	Y+52, r27	; 0x34
			
			Tune(lightlevel,low,high);
     3a0:	ae 01       	movw	r20, r28
     3a2:	43 5d       	subi	r20, 0xD3	; 211
     3a4:	5f 4f       	sbci	r21, 0xFF	; 255
     3a6:	be 01       	movw	r22, r28
     3a8:	67 5d       	subi	r22, 0xD7	; 215
     3aa:	7f 4f       	sbci	r23, 0xFF	; 255
     3ac:	ce 01       	movw	r24, r28
     3ae:	c1 96       	adiw	r24, 0x31	; 49
     3b0:	0e 94 8c 00 	call	0x118	; 0x118 <_Z4TuneRmS_S_>

			if((high-low)<10)
     3b4:	ed a4       	ldd	r14, Y+45	; 0x2d
     3b6:	fe a4       	ldd	r15, Y+46	; 0x2e
     3b8:	0f a5       	ldd	r16, Y+47	; 0x2f
     3ba:	18 a9       	ldd	r17, Y+48	; 0x30
     3bc:	29 a5       	ldd	r18, Y+41	; 0x29
     3be:	3a a5       	ldd	r19, Y+42	; 0x2a
     3c0:	4b a5       	ldd	r20, Y+43	; 0x2b
     3c2:	5c a5       	ldd	r21, Y+44	; 0x2c
     3c4:	d8 01       	movw	r26, r16
     3c6:	c7 01       	movw	r24, r14
     3c8:	82 1b       	sub	r24, r18
     3ca:	93 0b       	sbc	r25, r19
     3cc:	a4 0b       	sbc	r26, r20
     3ce:	b5 0b       	sbc	r27, r21
     3d0:	0a 97       	sbiw	r24, 0x0a	; 10
     3d2:	a1 05       	cpc	r26, r1
     3d4:	b1 05       	cpc	r27, r1
     3d6:	58 f4       	brcc	.+22     	; 0x3ee <main+0x152>
			{
				analogWrite(ledblue,LOW);
     3d8:	60 e0       	ldi	r22, 0x00	; 0
     3da:	70 e0       	ldi	r23, 0x00	; 0
     3dc:	85 e0       	ldi	r24, 0x05	; 5
     3de:	0e 94 8d 0c 	call	0x191a	; 0x191a <analogWrite>
				analogWrite(ledred,LOW);
     3e2:	60 e0       	ldi	r22, 0x00	; 0
     3e4:	70 e0       	ldi	r23, 0x00	; 0
     3e6:	86 e0       	ldi	r24, 0x06	; 6
     3e8:	0e 94 8d 0c 	call	0x191a	; 0x191a <analogWrite>
     3ec:	38 c0       	rjmp	.+112    	; 0x45e <__FUSE_REGION_LENGTH__+0x5e>
				
			}
			else
			{
				 mappedLevel =map(lightlevel,low,high,0,255);
     3ee:	69 a9       	ldd	r22, Y+49	; 0x31
     3f0:	7a a9       	ldd	r23, Y+50	; 0x32
     3f2:	8b a9       	ldd	r24, Y+51	; 0x33
     3f4:	9c a9       	ldd	r25, Y+52	; 0x34
     3f6:	1f 92       	push	r1
     3f8:	1f 92       	push	r1
     3fa:	1f 92       	push	r1
     3fc:	ef ef       	ldi	r30, 0xFF	; 255
     3fe:	ef 93       	push	r30
     400:	a1 2c       	mov	r10, r1
     402:	b1 2c       	mov	r11, r1
     404:	65 01       	movw	r12, r10
     406:	0e 94 61 0f 	call	0x1ec2	; 0x1ec2 <_Z3maplllll>
     40a:	6c af       	std	Y+60, r22	; 0x3c
     40c:	7d af       	std	Y+61, r23	; 0x3d
     40e:	8e af       	std	Y+62, r24	; 0x3e
     410:	9f af       	std	Y+63, r25	; 0x3f
				 avg = (lightlevelArray,mappedLevel);
				myservo.write(avg);
     412:	6c ad       	ldd	r22, Y+60	; 0x3c
     414:	7d ad       	ldd	r23, Y+61	; 0x3d
     416:	ce 01       	movw	r24, r28
     418:	c5 96       	adiw	r24, 0x35	; 53
     41a:	0e 94 f9 12 	call	0x25f2	; 0x25f2 <_ZN5Servo5writeEi>
				analogWrite(ledred,avg);
     41e:	6c ad       	ldd	r22, Y+60	; 0x3c
     420:	7d ad       	ldd	r23, Y+61	; 0x3d
     422:	86 e0       	ldi	r24, 0x06	; 6
     424:	0e 94 8d 0c 	call	0x191a	; 0x191a <analogWrite>
				analogWrite(ledblue,~avg);
     428:	6c ad       	ldd	r22, Y+60	; 0x3c
     42a:	7d ad       	ldd	r23, Y+61	; 0x3d
     42c:	60 95       	com	r22
     42e:	70 95       	com	r23
     430:	85 e0       	ldi	r24, 0x05	; 5
     432:	0e 94 8d 0c 	call	0x191a	; 0x191a <analogWrite>
     436:	0f 90       	pop	r0
     438:	0f 90       	pop	r0
     43a:	0f 90       	pop	r0
     43c:	0f 90       	pop	r0
				
			}
			else
			{
				 mappedLevel =map(lightlevel,low,high,0,255);
				 avg = (lightlevelArray,mappedLevel);
     43e:	8c ad       	ldd	r24, Y+60	; 0x3c
     440:	27 96       	adiw	r28, 0x07	; 7
     442:	8f af       	std	Y+63, r24	; 0x3f
     444:	27 97       	sbiw	r28, 0x07	; 7
     446:	9d ad       	ldd	r25, Y+61	; 0x3d
     448:	28 96       	adiw	r28, 0x08	; 8
     44a:	9f af       	std	Y+63, r25	; 0x3f
     44c:	28 97       	sbiw	r28, 0x08	; 8
     44e:	ee ad       	ldd	r30, Y+62	; 0x3e
     450:	25 96       	adiw	r28, 0x05	; 5
     452:	ef af       	std	Y+63, r30	; 0x3f
     454:	25 97       	sbiw	r28, 0x05	; 5
     456:	8f ad       	ldd	r24, Y+63	; 0x3f
     458:	26 96       	adiw	r28, 0x06	; 6
     45a:	8f af       	std	Y+63, r24	; 0x3f
     45c:	26 97       	sbiw	r28, 0x06	; 6
	/* Replace with your application code */
	while (true)
	{
	lastbuttonstate=buttonstate;
	buttonstate=Debounce(temp_button);
	tempdata=analogRead(temp);
     45e:	b4 01       	movw	r22, r8
     460:	99 0c       	add	r9, r9
     462:	88 0b       	sbc	r24, r24
     464:	99 0b       	sbc	r25, r25
     466:	0e 94 ce 15 	call	0x2b9c	; 0x2b9c <__floatsisf>
     46a:	4b 01       	movw	r8, r22
     46c:	5c 01       	movw	r10, r24
				 avg = (lightlevelArray,mappedLevel);
				myservo.write(avg);
				analogWrite(ledred,avg);
				analogWrite(ledblue,~avg);
			}
			degc=TempertureCelcius(temperturearray,tempdata);
     46e:	ab 01       	movw	r20, r22
     470:	bc 01       	movw	r22, r24
     472:	ce 01       	movw	r24, r28
     474:	01 96       	adiw	r24, 0x01	; 1
     476:	0e 94 bf 00 	call	0x17e	; 0x17e <_Z17TempertureCelciusPff>
     47a:	6b 01       	movw	r12, r22
     47c:	7c 01       	movw	r14, r24
		degf=TempertureF(temperturearray,tempdata,degc);
     47e:	8b 01       	movw	r16, r22
     480:	9c 01       	movw	r18, r24
     482:	b5 01       	movw	r22, r10
     484:	a4 01       	movw	r20, r8
     486:	ce 01       	movw	r24, r28
     488:	01 96       	adiw	r24, 0x01	; 1
     48a:	0e 94 0b 01 	call	0x216	; 0x216 <_Z11TempertureFPfff>
     48e:	24 96       	adiw	r28, 0x04	; 4
     490:	6c af       	std	Y+60, r22	; 0x3c
     492:	7d af       	std	Y+61, r23	; 0x3d
     494:	8e af       	std	Y+62, r24	; 0x3e
     496:	9f af       	std	Y+63, r25	; 0x3f
     498:	24 97       	sbiw	r28, 0x04	; 4
			if(high>low)
     49a:	4d a5       	ldd	r20, Y+45	; 0x2d
     49c:	5e a5       	ldd	r21, Y+46	; 0x2e
     49e:	6f a5       	ldd	r22, Y+47	; 0x2f
     4a0:	78 a9       	ldd	r23, Y+48	; 0x30
     4a2:	89 a5       	ldd	r24, Y+41	; 0x29
     4a4:	9a a5       	ldd	r25, Y+42	; 0x2a
     4a6:	ab a5       	ldd	r26, Y+43	; 0x2b
     4a8:	bc a5       	ldd	r27, Y+44	; 0x2c
     4aa:	84 17       	cp	r24, r20
     4ac:	95 07       	cpc	r25, r21
     4ae:	a6 07       	cpc	r26, r22
     4b0:	b7 07       	cpc	r27, r23
     4b2:	78 f4       	brcc	.+30     	; 0x4d2 <__FUSE_REGION_LENGTH__+0xd2>
			{
				high--;
     4b4:	41 50       	subi	r20, 0x01	; 1
     4b6:	51 09       	sbc	r21, r1
     4b8:	61 09       	sbc	r22, r1
     4ba:	71 09       	sbc	r23, r1
     4bc:	4d a7       	std	Y+45, r20	; 0x2d
     4be:	5e a7       	std	Y+46, r21	; 0x2e
     4c0:	6f a7       	std	Y+47, r22	; 0x2f
     4c2:	78 ab       	std	Y+48, r23	; 0x30
				low++;
     4c4:	01 96       	adiw	r24, 0x01	; 1
     4c6:	a1 1d       	adc	r26, r1
     4c8:	b1 1d       	adc	r27, r1
     4ca:	89 a7       	std	Y+41, r24	; 0x29
     4cc:	9a a7       	std	Y+42, r25	; 0x2a
     4ce:	ab a7       	std	Y+43, r26	; 0x2b
     4d0:	bc a7       	std	Y+44, r27	; 0x2c
			}
			
			
			
		}
		if(buttonstate==LOW&&lastbuttonstate==HIGH)
     4d2:	21 14       	cp	r2, r1
     4d4:	31 04       	cpc	r3, r1
     4d6:	09 f0       	breq	.+2      	; 0x4da <__FUSE_REGION_LENGTH__+0xda>
     4d8:	3a cf       	rjmp	.-396    	; 0x34e <main+0xb2>
     4da:	88 ad       	ldd	r24, Y+56	; 0x38
     4dc:	99 ad       	ldd	r25, Y+57	; 0x39
     4de:	01 97       	sbiw	r24, 0x01	; 1
     4e0:	09 f0       	breq	.+2      	; 0x4e4 <__FUSE_REGION_LENGTH__+0xe4>
     4e2:	35 cf       	rjmp	.-406    	; 0x34e <main+0xb2>
		{
		Serial.print("Light: avg(");
     4e4:	62 e1       	ldi	r22, 0x12	; 18
     4e6:	71 e0       	ldi	r23, 0x01	; 1
     4e8:	88 e7       	ldi	r24, 0x78	; 120
     4ea:	91 e0       	ldi	r25, 0x01	; 1
     4ec:	0e 94 c0 07 	call	0xf80	; 0xf80 <_ZN5Print5printEPKc>
		Serial.print(avg);
     4f0:	2a e0       	ldi	r18, 0x0A	; 10
     4f2:	30 e0       	ldi	r19, 0x00	; 0
     4f4:	27 96       	adiw	r28, 0x07	; 7
     4f6:	4f ad       	ldd	r20, Y+63	; 0x3f
     4f8:	27 97       	sbiw	r28, 0x07	; 7
     4fa:	28 96       	adiw	r28, 0x08	; 8
     4fc:	5f ad       	ldd	r21, Y+63	; 0x3f
     4fe:	28 97       	sbiw	r28, 0x08	; 8
     500:	25 96       	adiw	r28, 0x05	; 5
     502:	6f ad       	ldd	r22, Y+63	; 0x3f
     504:	25 97       	sbiw	r28, 0x05	; 5
     506:	26 96       	adiw	r28, 0x06	; 6
     508:	7f ad       	ldd	r23, Y+63	; 0x3f
     50a:	26 97       	sbiw	r28, 0x06	; 6
     50c:	88 e7       	ldi	r24, 0x78	; 120
     50e:	91 e0       	ldi	r25, 0x01	; 1
     510:	0e 94 92 08 	call	0x1124	; 0x1124 <_ZN5Print5printEmi>
		Serial.print(") min(");
     514:	6e e1       	ldi	r22, 0x1E	; 30
     516:	71 e0       	ldi	r23, 0x01	; 1
     518:	88 e7       	ldi	r24, 0x78	; 120
     51a:	91 e0       	ldi	r25, 0x01	; 1
     51c:	0e 94 c0 07 	call	0xf80	; 0xf80 <_ZN5Print5printEPKc>
		Serial.print(low);
     520:	49 a5       	ldd	r20, Y+41	; 0x29
     522:	5a a5       	ldd	r21, Y+42	; 0x2a
     524:	6b a5       	ldd	r22, Y+43	; 0x2b
     526:	7c a5       	ldd	r23, Y+44	; 0x2c
     528:	2a e0       	ldi	r18, 0x0A	; 10
     52a:	30 e0       	ldi	r19, 0x00	; 0
     52c:	88 e7       	ldi	r24, 0x78	; 120
     52e:	91 e0       	ldi	r25, 0x01	; 1
     530:	0e 94 92 08 	call	0x1124	; 0x1124 <_ZN5Print5printEmi>
		Serial.print(") max(");
     534:	65 e2       	ldi	r22, 0x25	; 37
     536:	71 e0       	ldi	r23, 0x01	; 1
     538:	88 e7       	ldi	r24, 0x78	; 120
     53a:	91 e0       	ldi	r25, 0x01	; 1
     53c:	0e 94 c0 07 	call	0xf80	; 0xf80 <_ZN5Print5printEPKc>
		Serial.print(high);
     540:	4d a5       	ldd	r20, Y+45	; 0x2d
     542:	5e a5       	ldd	r21, Y+46	; 0x2e
     544:	6f a5       	ldd	r22, Y+47	; 0x2f
     546:	78 a9       	ldd	r23, Y+48	; 0x30
     548:	2a e0       	ldi	r18, 0x0A	; 10
     54a:	30 e0       	ldi	r19, 0x00	; 0
     54c:	88 e7       	ldi	r24, 0x78	; 120
     54e:	91 e0       	ldi	r25, 0x01	; 1
     550:	0e 94 92 08 	call	0x1124	; 0x1124 <_ZN5Print5printEmi>
		Serial.print(") map(");
     554:	6c e2       	ldi	r22, 0x2C	; 44
     556:	71 e0       	ldi	r23, 0x01	; 1
     558:	88 e7       	ldi	r24, 0x78	; 120
     55a:	91 e0       	ldi	r25, 0x01	; 1
     55c:	0e 94 c0 07 	call	0xf80	; 0xf80 <_ZN5Print5printEPKc>
		Serial.print(mappedLevel);
     560:	2a e0       	ldi	r18, 0x0A	; 10
     562:	30 e0       	ldi	r19, 0x00	; 0
     564:	4c ad       	ldd	r20, Y+60	; 0x3c
     566:	5d ad       	ldd	r21, Y+61	; 0x3d
     568:	6e ad       	ldd	r22, Y+62	; 0x3e
     56a:	7f ad       	ldd	r23, Y+63	; 0x3f
     56c:	88 e7       	ldi	r24, 0x78	; 120
     56e:	91 e0       	ldi	r25, 0x01	; 1
     570:	0e 94 92 08 	call	0x1124	; 0x1124 <_ZN5Print5printEmi>
		Serial.print(") TEMP: degC(");
     574:	63 e3       	ldi	r22, 0x33	; 51
     576:	71 e0       	ldi	r23, 0x01	; 1
     578:	88 e7       	ldi	r24, 0x78	; 120
     57a:	91 e0       	ldi	r25, 0x01	; 1
     57c:	0e 94 c0 07 	call	0xf80	; 0xf80 <_ZN5Print5printEPKc>
		Serial.print(degc);
     580:	22 e0       	ldi	r18, 0x02	; 2
     582:	30 e0       	ldi	r19, 0x00	; 0
     584:	b7 01       	movw	r22, r14
     586:	a6 01       	movw	r20, r12
     588:	88 e7       	ldi	r24, 0x78	; 120
     58a:	91 e0       	ldi	r25, 0x01	; 1
     58c:	0e 94 cc 08 	call	0x1198	; 0x1198 <_ZN5Print5printEdi>
		Serial.print(") degF(");
     590:	61 e4       	ldi	r22, 0x41	; 65
     592:	71 e0       	ldi	r23, 0x01	; 1
     594:	88 e7       	ldi	r24, 0x78	; 120
     596:	91 e0       	ldi	r25, 0x01	; 1
     598:	0e 94 c0 07 	call	0xf80	; 0xf80 <_ZN5Print5printEPKc>
		Serial.print(degf);
     59c:	22 e0       	ldi	r18, 0x02	; 2
     59e:	30 e0       	ldi	r19, 0x00	; 0
     5a0:	24 96       	adiw	r28, 0x04	; 4
     5a2:	4c ad       	ldd	r20, Y+60	; 0x3c
     5a4:	5d ad       	ldd	r21, Y+61	; 0x3d
     5a6:	6e ad       	ldd	r22, Y+62	; 0x3e
     5a8:	7f ad       	ldd	r23, Y+63	; 0x3f
     5aa:	24 97       	sbiw	r28, 0x04	; 4
     5ac:	88 e7       	ldi	r24, 0x78	; 120
     5ae:	91 e0       	ldi	r25, 0x01	; 1
     5b0:	0e 94 cc 08 	call	0x1198	; 0x1198 <_ZN5Print5printEdi>
		Serial.println(")");
     5b4:	69 e4       	ldi	r22, 0x49	; 73
     5b6:	71 e0       	ldi	r23, 0x01	; 1
     5b8:	88 e7       	ldi	r24, 0x78	; 120
     5ba:	91 e0       	ldi	r25, 0x01	; 1
     5bc:	0e 94 05 09 	call	0x120a	; 0x120a <_ZN5Print7printlnEPKc>
     5c0:	c6 ce       	rjmp	.-628    	; 0x34e <main+0xb2>

000005c2 <_ZN14HardwareSerial17_tx_udr_empty_irqEv>:
     5c2:	cf 93       	push	r28
     5c4:	df 93       	push	r29
     5c6:	00 d0       	rcall	.+0      	; 0x5c8 <_ZN14HardwareSerial17_tx_udr_empty_irqEv+0x6>
     5c8:	1f 92       	push	r1
     5ca:	cd b7       	in	r28, 0x3d	; 61
     5cc:	de b7       	in	r29, 0x3e	; 62
     5ce:	9b 83       	std	Y+3, r25	; 0x03
     5d0:	8a 83       	std	Y+2, r24	; 0x02
     5d2:	8a 81       	ldd	r24, Y+2	; 0x02
     5d4:	9b 81       	ldd	r25, Y+3	; 0x03
     5d6:	fc 01       	movw	r30, r24
     5d8:	84 8d       	ldd	r24, Z+28	; 0x1c
     5da:	88 2f       	mov	r24, r24
     5dc:	90 e0       	ldi	r25, 0x00	; 0
     5de:	2a 81       	ldd	r18, Y+2	; 0x02
     5e0:	3b 81       	ldd	r19, Y+3	; 0x03
     5e2:	82 0f       	add	r24, r18
     5e4:	93 1f       	adc	r25, r19
     5e6:	83 5a       	subi	r24, 0xA3	; 163
     5e8:	9f 4f       	sbci	r25, 0xFF	; 255
     5ea:	fc 01       	movw	r30, r24
     5ec:	80 81       	ld	r24, Z
     5ee:	89 83       	std	Y+1, r24	; 0x01
     5f0:	8a 81       	ldd	r24, Y+2	; 0x02
     5f2:	9b 81       	ldd	r25, Y+3	; 0x03
     5f4:	fc 01       	movw	r30, r24
     5f6:	84 8d       	ldd	r24, Z+28	; 0x1c
     5f8:	88 2f       	mov	r24, r24
     5fa:	90 e0       	ldi	r25, 0x00	; 0
     5fc:	01 96       	adiw	r24, 0x01	; 1
     5fe:	8f 77       	andi	r24, 0x7F	; 127
     600:	90 78       	andi	r25, 0x80	; 128
     602:	99 23       	and	r25, r25
     604:	24 f4       	brge	.+8      	; 0x60e <_ZN14HardwareSerial17_tx_udr_empty_irqEv+0x4c>
     606:	01 97       	sbiw	r24, 0x01	; 1
     608:	80 68       	ori	r24, 0x80	; 128
     60a:	9f 6f       	ori	r25, 0xFF	; 255
     60c:	01 96       	adiw	r24, 0x01	; 1
     60e:	28 2f       	mov	r18, r24
     610:	8a 81       	ldd	r24, Y+2	; 0x02
     612:	9b 81       	ldd	r25, Y+3	; 0x03
     614:	fc 01       	movw	r30, r24
     616:	24 8f       	std	Z+28, r18	; 0x1c
     618:	8a 81       	ldd	r24, Y+2	; 0x02
     61a:	9b 81       	ldd	r25, Y+3	; 0x03
     61c:	fc 01       	movw	r30, r24
     61e:	86 89       	ldd	r24, Z+22	; 0x16
     620:	97 89       	ldd	r25, Z+23	; 0x17
     622:	29 81       	ldd	r18, Y+1	; 0x01
     624:	fc 01       	movw	r30, r24
     626:	20 83       	st	Z, r18
     628:	8a 81       	ldd	r24, Y+2	; 0x02
     62a:	9b 81       	ldd	r25, Y+3	; 0x03
     62c:	fc 01       	movw	r30, r24
     62e:	80 89       	ldd	r24, Z+16	; 0x10
     630:	91 89       	ldd	r25, Z+17	; 0x11
     632:	2a 81       	ldd	r18, Y+2	; 0x02
     634:	3b 81       	ldd	r19, Y+3	; 0x03
     636:	f9 01       	movw	r30, r18
     638:	20 89       	ldd	r18, Z+16	; 0x10
     63a:	31 89       	ldd	r19, Z+17	; 0x11
     63c:	f9 01       	movw	r30, r18
     63e:	20 81       	ld	r18, Z
     640:	20 64       	ori	r18, 0x40	; 64
     642:	fc 01       	movw	r30, r24
     644:	20 83       	st	Z, r18
     646:	8a 81       	ldd	r24, Y+2	; 0x02
     648:	9b 81       	ldd	r25, Y+3	; 0x03
     64a:	fc 01       	movw	r30, r24
     64c:	23 8d       	ldd	r18, Z+27	; 0x1b
     64e:	8a 81       	ldd	r24, Y+2	; 0x02
     650:	9b 81       	ldd	r25, Y+3	; 0x03
     652:	fc 01       	movw	r30, r24
     654:	94 8d       	ldd	r25, Z+28	; 0x1c
     656:	81 e0       	ldi	r24, 0x01	; 1
     658:	29 17       	cp	r18, r25
     65a:	09 f0       	breq	.+2      	; 0x65e <_ZN14HardwareSerial17_tx_udr_empty_irqEv+0x9c>
     65c:	80 e0       	ldi	r24, 0x00	; 0
     65e:	88 23       	and	r24, r24
     660:	79 f0       	breq	.+30     	; 0x680 <_ZN14HardwareSerial17_tx_udr_empty_irqEv+0xbe>
     662:	8a 81       	ldd	r24, Y+2	; 0x02
     664:	9b 81       	ldd	r25, Y+3	; 0x03
     666:	fc 01       	movw	r30, r24
     668:	82 89       	ldd	r24, Z+18	; 0x12
     66a:	93 89       	ldd	r25, Z+19	; 0x13
     66c:	2a 81       	ldd	r18, Y+2	; 0x02
     66e:	3b 81       	ldd	r19, Y+3	; 0x03
     670:	f9 01       	movw	r30, r18
     672:	22 89       	ldd	r18, Z+18	; 0x12
     674:	33 89       	ldd	r19, Z+19	; 0x13
     676:	f9 01       	movw	r30, r18
     678:	20 81       	ld	r18, Z
     67a:	2f 7d       	andi	r18, 0xDF	; 223
     67c:	fc 01       	movw	r30, r24
     67e:	20 83       	st	Z, r18
     680:	0f 90       	pop	r0
     682:	0f 90       	pop	r0
     684:	0f 90       	pop	r0
     686:	df 91       	pop	r29
     688:	cf 91       	pop	r28
     68a:	08 95       	ret

0000068c <_ZN14HardwareSerial5beginEmh>:
     68c:	cf 93       	push	r28
     68e:	df 93       	push	r29
     690:	cd b7       	in	r28, 0x3d	; 61
     692:	de b7       	in	r29, 0x3e	; 62
     694:	61 97       	sbiw	r28, 0x11	; 17
     696:	0f b6       	in	r0, 0x3f	; 63
     698:	f8 94       	cli
     69a:	de bf       	out	0x3e, r29	; 62
     69c:	0f be       	out	0x3f, r0	; 63
     69e:	cd bf       	out	0x3d, r28	; 61
     6a0:	9c 83       	std	Y+4, r25	; 0x04
     6a2:	8b 83       	std	Y+3, r24	; 0x03
     6a4:	4d 83       	std	Y+5, r20	; 0x05
     6a6:	5e 83       	std	Y+6, r21	; 0x06
     6a8:	6f 83       	std	Y+7, r22	; 0x07
     6aa:	78 87       	std	Y+8, r23	; 0x08
     6ac:	29 87       	std	Y+9, r18	; 0x09
     6ae:	80 e0       	ldi	r24, 0x00	; 0
     6b0:	99 e0       	ldi	r25, 0x09	; 9
     6b2:	ad e3       	ldi	r26, 0x3D	; 61
     6b4:	b0 e0       	ldi	r27, 0x00	; 0
     6b6:	2d 81       	ldd	r18, Y+5	; 0x05
     6b8:	3e 81       	ldd	r19, Y+6	; 0x06
     6ba:	4f 81       	ldd	r20, Y+7	; 0x07
     6bc:	58 85       	ldd	r21, Y+8	; 0x08
     6be:	bc 01       	movw	r22, r24
     6c0:	cd 01       	movw	r24, r26
     6c2:	0e 94 51 14 	call	0x28a2	; 0x28a2 <__udivmodsi4>
     6c6:	da 01       	movw	r26, r20
     6c8:	c9 01       	movw	r24, r18
     6ca:	01 97       	sbiw	r24, 0x01	; 1
     6cc:	a1 09       	sbc	r26, r1
     6ce:	b1 09       	sbc	r27, r1
     6d0:	b6 95       	lsr	r27
     6d2:	a7 95       	ror	r26
     6d4:	97 95       	ror	r25
     6d6:	87 95       	ror	r24
     6d8:	9a 83       	std	Y+2, r25	; 0x02
     6da:	89 83       	std	Y+1, r24	; 0x01
     6dc:	8b 81       	ldd	r24, Y+3	; 0x03
     6de:	9c 81       	ldd	r25, Y+4	; 0x04
     6e0:	fc 01       	movw	r30, r24
     6e2:	80 89       	ldd	r24, Z+16	; 0x10
     6e4:	91 89       	ldd	r25, Z+17	; 0x11
     6e6:	22 e0       	ldi	r18, 0x02	; 2
     6e8:	fc 01       	movw	r30, r24
     6ea:	20 83       	st	Z, r18
     6ec:	8d 81       	ldd	r24, Y+5	; 0x05
     6ee:	9e 81       	ldd	r25, Y+6	; 0x06
     6f0:	af 81       	ldd	r26, Y+7	; 0x07
     6f2:	b8 85       	ldd	r27, Y+8	; 0x08
     6f4:	81 15       	cp	r24, r1
     6f6:	91 4e       	sbci	r25, 0xE1	; 225
     6f8:	a1 05       	cpc	r26, r1
     6fa:	b1 05       	cpc	r27, r1
     6fc:	29 f0       	breq	.+10     	; 0x708 <_ZN14HardwareSerial5beginEmh+0x7c>
     6fe:	89 81       	ldd	r24, Y+1	; 0x01
     700:	9a 81       	ldd	r25, Y+2	; 0x02
     702:	81 15       	cp	r24, r1
     704:	90 41       	sbci	r25, 0x10	; 16
     706:	f0 f0       	brcs	.+60     	; 0x744 <_ZN14HardwareSerial5beginEmh+0xb8>
     708:	8b 81       	ldd	r24, Y+3	; 0x03
     70a:	9c 81       	ldd	r25, Y+4	; 0x04
     70c:	fc 01       	movw	r30, r24
     70e:	80 89       	ldd	r24, Z+16	; 0x10
     710:	91 89       	ldd	r25, Z+17	; 0x11
     712:	fc 01       	movw	r30, r24
     714:	10 82       	st	Z, r1
     716:	80 e8       	ldi	r24, 0x80	; 128
     718:	94 e8       	ldi	r25, 0x84	; 132
     71a:	ae e1       	ldi	r26, 0x1E	; 30
     71c:	b0 e0       	ldi	r27, 0x00	; 0
     71e:	2d 81       	ldd	r18, Y+5	; 0x05
     720:	3e 81       	ldd	r19, Y+6	; 0x06
     722:	4f 81       	ldd	r20, Y+7	; 0x07
     724:	58 85       	ldd	r21, Y+8	; 0x08
     726:	bc 01       	movw	r22, r24
     728:	cd 01       	movw	r24, r26
     72a:	0e 94 51 14 	call	0x28a2	; 0x28a2 <__udivmodsi4>
     72e:	da 01       	movw	r26, r20
     730:	c9 01       	movw	r24, r18
     732:	01 97       	sbiw	r24, 0x01	; 1
     734:	a1 09       	sbc	r26, r1
     736:	b1 09       	sbc	r27, r1
     738:	b6 95       	lsr	r27
     73a:	a7 95       	ror	r26
     73c:	97 95       	ror	r25
     73e:	87 95       	ror	r24
     740:	9a 83       	std	Y+2, r25	; 0x02
     742:	89 83       	std	Y+1, r24	; 0x01
     744:	8b 81       	ldd	r24, Y+3	; 0x03
     746:	9c 81       	ldd	r25, Y+4	; 0x04
     748:	fc 01       	movw	r30, r24
     74a:	84 85       	ldd	r24, Z+12	; 0x0c
     74c:	95 85       	ldd	r25, Z+13	; 0x0d
     74e:	29 81       	ldd	r18, Y+1	; 0x01
     750:	3a 81       	ldd	r19, Y+2	; 0x02
     752:	23 2f       	mov	r18, r19
     754:	33 27       	eor	r19, r19
     756:	fc 01       	movw	r30, r24
     758:	20 83       	st	Z, r18
     75a:	8b 81       	ldd	r24, Y+3	; 0x03
     75c:	9c 81       	ldd	r25, Y+4	; 0x04
     75e:	fc 01       	movw	r30, r24
     760:	86 85       	ldd	r24, Z+14	; 0x0e
     762:	97 85       	ldd	r25, Z+15	; 0x0f
     764:	29 81       	ldd	r18, Y+1	; 0x01
     766:	fc 01       	movw	r30, r24
     768:	20 83       	st	Z, r18
     76a:	8b 81       	ldd	r24, Y+3	; 0x03
     76c:	9c 81       	ldd	r25, Y+4	; 0x04
     76e:	fc 01       	movw	r30, r24
     770:	10 8e       	std	Z+24, r1	; 0x18
     772:	8b 81       	ldd	r24, Y+3	; 0x03
     774:	9c 81       	ldd	r25, Y+4	; 0x04
     776:	fc 01       	movw	r30, r24
     778:	84 89       	ldd	r24, Z+20	; 0x14
     77a:	95 89       	ldd	r25, Z+21	; 0x15
     77c:	29 85       	ldd	r18, Y+9	; 0x09
     77e:	fc 01       	movw	r30, r24
     780:	20 83       	st	Z, r18
     782:	8b 81       	ldd	r24, Y+3	; 0x03
     784:	9c 81       	ldd	r25, Y+4	; 0x04
     786:	fc 01       	movw	r30, r24
     788:	82 89       	ldd	r24, Z+18	; 0x12
     78a:	93 89       	ldd	r25, Z+19	; 0x13
     78c:	2b 81       	ldd	r18, Y+3	; 0x03
     78e:	3c 81       	ldd	r19, Y+4	; 0x04
     790:	f9 01       	movw	r30, r18
     792:	22 89       	ldd	r18, Z+18	; 0x12
     794:	33 89       	ldd	r19, Z+19	; 0x13
     796:	f9 01       	movw	r30, r18
     798:	20 81       	ld	r18, Z
     79a:	20 61       	ori	r18, 0x10	; 16
     79c:	fc 01       	movw	r30, r24
     79e:	20 83       	st	Z, r18
     7a0:	8b 81       	ldd	r24, Y+3	; 0x03
     7a2:	9c 81       	ldd	r25, Y+4	; 0x04
     7a4:	fc 01       	movw	r30, r24
     7a6:	82 89       	ldd	r24, Z+18	; 0x12
     7a8:	93 89       	ldd	r25, Z+19	; 0x13
     7aa:	2b 81       	ldd	r18, Y+3	; 0x03
     7ac:	3c 81       	ldd	r19, Y+4	; 0x04
     7ae:	f9 01       	movw	r30, r18
     7b0:	22 89       	ldd	r18, Z+18	; 0x12
     7b2:	33 89       	ldd	r19, Z+19	; 0x13
     7b4:	f9 01       	movw	r30, r18
     7b6:	20 81       	ld	r18, Z
     7b8:	28 60       	ori	r18, 0x08	; 8
     7ba:	fc 01       	movw	r30, r24
     7bc:	20 83       	st	Z, r18
     7be:	8b 81       	ldd	r24, Y+3	; 0x03
     7c0:	9c 81       	ldd	r25, Y+4	; 0x04
     7c2:	fc 01       	movw	r30, r24
     7c4:	82 89       	ldd	r24, Z+18	; 0x12
     7c6:	93 89       	ldd	r25, Z+19	; 0x13
     7c8:	2b 81       	ldd	r18, Y+3	; 0x03
     7ca:	3c 81       	ldd	r19, Y+4	; 0x04
     7cc:	f9 01       	movw	r30, r18
     7ce:	22 89       	ldd	r18, Z+18	; 0x12
     7d0:	33 89       	ldd	r19, Z+19	; 0x13
     7d2:	f9 01       	movw	r30, r18
     7d4:	20 81       	ld	r18, Z
     7d6:	20 68       	ori	r18, 0x80	; 128
     7d8:	fc 01       	movw	r30, r24
     7da:	20 83       	st	Z, r18
     7dc:	8b 81       	ldd	r24, Y+3	; 0x03
     7de:	9c 81       	ldd	r25, Y+4	; 0x04
     7e0:	fc 01       	movw	r30, r24
     7e2:	82 89       	ldd	r24, Z+18	; 0x12
     7e4:	93 89       	ldd	r25, Z+19	; 0x13
     7e6:	2b 81       	ldd	r18, Y+3	; 0x03
     7e8:	3c 81       	ldd	r19, Y+4	; 0x04
     7ea:	f9 01       	movw	r30, r18
     7ec:	22 89       	ldd	r18, Z+18	; 0x12
     7ee:	33 89       	ldd	r19, Z+19	; 0x13
     7f0:	f9 01       	movw	r30, r18
     7f2:	20 81       	ld	r18, Z
     7f4:	2f 7d       	andi	r18, 0xDF	; 223
     7f6:	fc 01       	movw	r30, r24
     7f8:	20 83       	st	Z, r18
     7fa:	61 96       	adiw	r28, 0x11	; 17
     7fc:	0f b6       	in	r0, 0x3f	; 63
     7fe:	f8 94       	cli
     800:	de bf       	out	0x3e, r29	; 62
     802:	0f be       	out	0x3f, r0	; 63
     804:	cd bf       	out	0x3d, r28	; 61
     806:	df 91       	pop	r29
     808:	cf 91       	pop	r28
     80a:	08 95       	ret

0000080c <_ZN14HardwareSerial9availableEv>:
     80c:	cf 93       	push	r28
     80e:	df 93       	push	r29
     810:	00 d0       	rcall	.+0      	; 0x812 <_ZN14HardwareSerial9availableEv+0x6>
     812:	cd b7       	in	r28, 0x3d	; 61
     814:	de b7       	in	r29, 0x3e	; 62
     816:	9a 83       	std	Y+2, r25	; 0x02
     818:	89 83       	std	Y+1, r24	; 0x01
     81a:	89 81       	ldd	r24, Y+1	; 0x01
     81c:	9a 81       	ldd	r25, Y+2	; 0x02
     81e:	fc 01       	movw	r30, r24
     820:	81 8d       	ldd	r24, Z+25	; 0x19
     822:	88 2f       	mov	r24, r24
     824:	90 e0       	ldi	r25, 0x00	; 0
     826:	9c 01       	movw	r18, r24
     828:	20 5c       	subi	r18, 0xC0	; 192
     82a:	3f 4f       	sbci	r19, 0xFF	; 255
     82c:	89 81       	ldd	r24, Y+1	; 0x01
     82e:	9a 81       	ldd	r25, Y+2	; 0x02
     830:	fc 01       	movw	r30, r24
     832:	82 8d       	ldd	r24, Z+26	; 0x1a
     834:	88 2f       	mov	r24, r24
     836:	90 e0       	ldi	r25, 0x00	; 0
     838:	a9 01       	movw	r20, r18
     83a:	48 1b       	sub	r20, r24
     83c:	59 0b       	sbc	r21, r25
     83e:	ca 01       	movw	r24, r20
     840:	8f 73       	andi	r24, 0x3F	; 63
     842:	99 27       	eor	r25, r25
     844:	0f 90       	pop	r0
     846:	0f 90       	pop	r0
     848:	df 91       	pop	r29
     84a:	cf 91       	pop	r28
     84c:	08 95       	ret

0000084e <_ZN14HardwareSerial4peekEv>:
     84e:	cf 93       	push	r28
     850:	df 93       	push	r29
     852:	00 d0       	rcall	.+0      	; 0x854 <_ZN14HardwareSerial4peekEv+0x6>
     854:	cd b7       	in	r28, 0x3d	; 61
     856:	de b7       	in	r29, 0x3e	; 62
     858:	9a 83       	std	Y+2, r25	; 0x02
     85a:	89 83       	std	Y+1, r24	; 0x01
     85c:	89 81       	ldd	r24, Y+1	; 0x01
     85e:	9a 81       	ldd	r25, Y+2	; 0x02
     860:	fc 01       	movw	r30, r24
     862:	21 8d       	ldd	r18, Z+25	; 0x19
     864:	89 81       	ldd	r24, Y+1	; 0x01
     866:	9a 81       	ldd	r25, Y+2	; 0x02
     868:	fc 01       	movw	r30, r24
     86a:	92 8d       	ldd	r25, Z+26	; 0x1a
     86c:	81 e0       	ldi	r24, 0x01	; 1
     86e:	29 17       	cp	r18, r25
     870:	09 f0       	breq	.+2      	; 0x874 <_ZN14HardwareSerial4peekEv+0x26>
     872:	80 e0       	ldi	r24, 0x00	; 0
     874:	88 23       	and	r24, r24
     876:	19 f0       	breq	.+6      	; 0x87e <_ZN14HardwareSerial4peekEv+0x30>
     878:	8f ef       	ldi	r24, 0xFF	; 255
     87a:	9f ef       	ldi	r25, 0xFF	; 255
     87c:	0f c0       	rjmp	.+30     	; 0x89c <_ZN14HardwareSerial4peekEv+0x4e>
     87e:	89 81       	ldd	r24, Y+1	; 0x01
     880:	9a 81       	ldd	r25, Y+2	; 0x02
     882:	fc 01       	movw	r30, r24
     884:	82 8d       	ldd	r24, Z+26	; 0x1a
     886:	88 2f       	mov	r24, r24
     888:	90 e0       	ldi	r25, 0x00	; 0
     88a:	29 81       	ldd	r18, Y+1	; 0x01
     88c:	3a 81       	ldd	r19, Y+2	; 0x02
     88e:	82 0f       	add	r24, r18
     890:	93 1f       	adc	r25, r19
     892:	4d 96       	adiw	r24, 0x1d	; 29
     894:	fc 01       	movw	r30, r24
     896:	80 81       	ld	r24, Z
     898:	88 2f       	mov	r24, r24
     89a:	90 e0       	ldi	r25, 0x00	; 0
     89c:	0f 90       	pop	r0
     89e:	0f 90       	pop	r0
     8a0:	df 91       	pop	r29
     8a2:	cf 91       	pop	r28
     8a4:	08 95       	ret

000008a6 <_ZN14HardwareSerial4readEv>:
     8a6:	cf 93       	push	r28
     8a8:	df 93       	push	r29
     8aa:	00 d0       	rcall	.+0      	; 0x8ac <_ZN14HardwareSerial4readEv+0x6>
     8ac:	1f 92       	push	r1
     8ae:	cd b7       	in	r28, 0x3d	; 61
     8b0:	de b7       	in	r29, 0x3e	; 62
     8b2:	9b 83       	std	Y+3, r25	; 0x03
     8b4:	8a 83       	std	Y+2, r24	; 0x02
     8b6:	8a 81       	ldd	r24, Y+2	; 0x02
     8b8:	9b 81       	ldd	r25, Y+3	; 0x03
     8ba:	fc 01       	movw	r30, r24
     8bc:	21 8d       	ldd	r18, Z+25	; 0x19
     8be:	8a 81       	ldd	r24, Y+2	; 0x02
     8c0:	9b 81       	ldd	r25, Y+3	; 0x03
     8c2:	fc 01       	movw	r30, r24
     8c4:	92 8d       	ldd	r25, Z+26	; 0x1a
     8c6:	81 e0       	ldi	r24, 0x01	; 1
     8c8:	29 17       	cp	r18, r25
     8ca:	09 f0       	breq	.+2      	; 0x8ce <_ZN14HardwareSerial4readEv+0x28>
     8cc:	80 e0       	ldi	r24, 0x00	; 0
     8ce:	88 23       	and	r24, r24
     8d0:	19 f0       	breq	.+6      	; 0x8d8 <_ZN14HardwareSerial4readEv+0x32>
     8d2:	8f ef       	ldi	r24, 0xFF	; 255
     8d4:	9f ef       	ldi	r25, 0xFF	; 255
     8d6:	1c c0       	rjmp	.+56     	; 0x910 <__stack+0x11>
     8d8:	8a 81       	ldd	r24, Y+2	; 0x02
     8da:	9b 81       	ldd	r25, Y+3	; 0x03
     8dc:	fc 01       	movw	r30, r24
     8de:	82 8d       	ldd	r24, Z+26	; 0x1a
     8e0:	88 2f       	mov	r24, r24
     8e2:	90 e0       	ldi	r25, 0x00	; 0
     8e4:	2a 81       	ldd	r18, Y+2	; 0x02
     8e6:	3b 81       	ldd	r19, Y+3	; 0x03
     8e8:	82 0f       	add	r24, r18
     8ea:	93 1f       	adc	r25, r19
     8ec:	4d 96       	adiw	r24, 0x1d	; 29
     8ee:	fc 01       	movw	r30, r24
     8f0:	80 81       	ld	r24, Z
     8f2:	89 83       	std	Y+1, r24	; 0x01
     8f4:	8a 81       	ldd	r24, Y+2	; 0x02
     8f6:	9b 81       	ldd	r25, Y+3	; 0x03
     8f8:	fc 01       	movw	r30, r24
     8fa:	82 8d       	ldd	r24, Z+26	; 0x1a
     8fc:	8f 5f       	subi	r24, 0xFF	; 255
     8fe:	28 2f       	mov	r18, r24
     900:	2f 73       	andi	r18, 0x3F	; 63
     902:	8a 81       	ldd	r24, Y+2	; 0x02
     904:	9b 81       	ldd	r25, Y+3	; 0x03
     906:	fc 01       	movw	r30, r24
     908:	22 8f       	std	Z+26, r18	; 0x1a
     90a:	89 81       	ldd	r24, Y+1	; 0x01
     90c:	88 2f       	mov	r24, r24
     90e:	90 e0       	ldi	r25, 0x00	; 0
     910:	0f 90       	pop	r0
     912:	0f 90       	pop	r0
     914:	0f 90       	pop	r0
     916:	df 91       	pop	r29
     918:	cf 91       	pop	r28
     91a:	08 95       	ret

0000091c <_ZN14HardwareSerial5flushEv>:
     91c:	cf 93       	push	r28
     91e:	df 93       	push	r29
     920:	00 d0       	rcall	.+0      	; 0x922 <_ZN14HardwareSerial5flushEv+0x6>
     922:	cd b7       	in	r28, 0x3d	; 61
     924:	de b7       	in	r29, 0x3e	; 62
     926:	9a 83       	std	Y+2, r25	; 0x02
     928:	89 83       	std	Y+1, r24	; 0x01
     92a:	89 81       	ldd	r24, Y+1	; 0x01
     92c:	9a 81       	ldd	r25, Y+2	; 0x02
     92e:	fc 01       	movw	r30, r24
     930:	90 8d       	ldd	r25, Z+24	; 0x18
     932:	81 e0       	ldi	r24, 0x01	; 1
     934:	89 27       	eor	r24, r25
     936:	88 23       	and	r24, r24
     938:	09 f0       	breq	.+2      	; 0x93c <_ZN14HardwareSerial5flushEv+0x20>
     93a:	4e c0       	rjmp	.+156    	; 0x9d8 <_ZN14HardwareSerial5flushEv+0xbc>
     93c:	2d c0       	rjmp	.+90     	; 0x998 <_ZN14HardwareSerial5flushEv+0x7c>
     93e:	8f e5       	ldi	r24, 0x5F	; 95
     940:	90 e0       	ldi	r25, 0x00	; 0
     942:	fc 01       	movw	r30, r24
     944:	80 81       	ld	r24, Z
     946:	88 23       	and	r24, r24
     948:	7c f0       	brlt	.+30     	; 0x968 <_ZN14HardwareSerial5flushEv+0x4c>
     94a:	89 81       	ldd	r24, Y+1	; 0x01
     94c:	9a 81       	ldd	r25, Y+2	; 0x02
     94e:	fc 01       	movw	r30, r24
     950:	82 89       	ldd	r24, Z+18	; 0x12
     952:	93 89       	ldd	r25, Z+19	; 0x13
     954:	fc 01       	movw	r30, r24
     956:	80 81       	ld	r24, Z
     958:	88 2f       	mov	r24, r24
     95a:	90 e0       	ldi	r25, 0x00	; 0
     95c:	80 72       	andi	r24, 0x20	; 32
     95e:	99 27       	eor	r25, r25
     960:	89 2b       	or	r24, r25
     962:	11 f0       	breq	.+4      	; 0x968 <_ZN14HardwareSerial5flushEv+0x4c>
     964:	81 e0       	ldi	r24, 0x01	; 1
     966:	01 c0       	rjmp	.+2      	; 0x96a <_ZN14HardwareSerial5flushEv+0x4e>
     968:	80 e0       	ldi	r24, 0x00	; 0
     96a:	88 23       	and	r24, r24
     96c:	a9 f0       	breq	.+42     	; 0x998 <_ZN14HardwareSerial5flushEv+0x7c>
     96e:	89 81       	ldd	r24, Y+1	; 0x01
     970:	9a 81       	ldd	r25, Y+2	; 0x02
     972:	fc 01       	movw	r30, r24
     974:	80 89       	ldd	r24, Z+16	; 0x10
     976:	91 89       	ldd	r25, Z+17	; 0x11
     978:	fc 01       	movw	r30, r24
     97a:	80 81       	ld	r24, Z
     97c:	88 2f       	mov	r24, r24
     97e:	90 e0       	ldi	r25, 0x00	; 0
     980:	80 72       	andi	r24, 0x20	; 32
     982:	99 27       	eor	r25, r25
     984:	21 e0       	ldi	r18, 0x01	; 1
     986:	89 2b       	or	r24, r25
     988:	09 f4       	brne	.+2      	; 0x98c <_ZN14HardwareSerial5flushEv+0x70>
     98a:	20 e0       	ldi	r18, 0x00	; 0
     98c:	22 23       	and	r18, r18
     98e:	21 f0       	breq	.+8      	; 0x998 <_ZN14HardwareSerial5flushEv+0x7c>
     990:	89 81       	ldd	r24, Y+1	; 0x01
     992:	9a 81       	ldd	r25, Y+2	; 0x02
     994:	0e 94 e1 02 	call	0x5c2	; 0x5c2 <_ZN14HardwareSerial17_tx_udr_empty_irqEv>
     998:	89 81       	ldd	r24, Y+1	; 0x01
     99a:	9a 81       	ldd	r25, Y+2	; 0x02
     99c:	fc 01       	movw	r30, r24
     99e:	82 89       	ldd	r24, Z+18	; 0x12
     9a0:	93 89       	ldd	r25, Z+19	; 0x13
     9a2:	fc 01       	movw	r30, r24
     9a4:	80 81       	ld	r24, Z
     9a6:	88 2f       	mov	r24, r24
     9a8:	90 e0       	ldi	r25, 0x00	; 0
     9aa:	80 72       	andi	r24, 0x20	; 32
     9ac:	99 27       	eor	r25, r25
     9ae:	89 2b       	or	r24, r25
     9b0:	69 f4       	brne	.+26     	; 0x9cc <_ZN14HardwareSerial5flushEv+0xb0>
     9b2:	89 81       	ldd	r24, Y+1	; 0x01
     9b4:	9a 81       	ldd	r25, Y+2	; 0x02
     9b6:	fc 01       	movw	r30, r24
     9b8:	80 89       	ldd	r24, Z+16	; 0x10
     9ba:	91 89       	ldd	r25, Z+17	; 0x11
     9bc:	fc 01       	movw	r30, r24
     9be:	80 81       	ld	r24, Z
     9c0:	88 2f       	mov	r24, r24
     9c2:	90 e0       	ldi	r25, 0x00	; 0
     9c4:	80 74       	andi	r24, 0x40	; 64
     9c6:	99 27       	eor	r25, r25
     9c8:	89 2b       	or	r24, r25
     9ca:	11 f4       	brne	.+4      	; 0x9d0 <_ZN14HardwareSerial5flushEv+0xb4>
     9cc:	81 e0       	ldi	r24, 0x01	; 1
     9ce:	01 c0       	rjmp	.+2      	; 0x9d2 <_ZN14HardwareSerial5flushEv+0xb6>
     9d0:	80 e0       	ldi	r24, 0x00	; 0
     9d2:	88 23       	and	r24, r24
     9d4:	09 f0       	breq	.+2      	; 0x9d8 <_ZN14HardwareSerial5flushEv+0xbc>
     9d6:	b3 cf       	rjmp	.-154    	; 0x93e <_ZN14HardwareSerial5flushEv+0x22>
     9d8:	0f 90       	pop	r0
     9da:	0f 90       	pop	r0
     9dc:	df 91       	pop	r29
     9de:	cf 91       	pop	r28
     9e0:	08 95       	ret

000009e2 <_ZN14HardwareSerial5writeEh>:
     9e2:	cf 93       	push	r28
     9e4:	df 93       	push	r29
     9e6:	00 d0       	rcall	.+0      	; 0x9e8 <_ZN14HardwareSerial5writeEh+0x6>
     9e8:	00 d0       	rcall	.+0      	; 0x9ea <_ZN14HardwareSerial5writeEh+0x8>
     9ea:	cd b7       	in	r28, 0x3d	; 61
     9ec:	de b7       	in	r29, 0x3e	; 62
     9ee:	9b 83       	std	Y+3, r25	; 0x03
     9f0:	8a 83       	std	Y+2, r24	; 0x02
     9f2:	6c 83       	std	Y+4, r22	; 0x04
     9f4:	8a 81       	ldd	r24, Y+2	; 0x02
     9f6:	9b 81       	ldd	r25, Y+3	; 0x03
     9f8:	21 e0       	ldi	r18, 0x01	; 1
     9fa:	fc 01       	movw	r30, r24
     9fc:	20 8f       	std	Z+24, r18	; 0x18
     9fe:	8a 81       	ldd	r24, Y+2	; 0x02
     a00:	9b 81       	ldd	r25, Y+3	; 0x03
     a02:	fc 01       	movw	r30, r24
     a04:	23 8d       	ldd	r18, Z+27	; 0x1b
     a06:	8a 81       	ldd	r24, Y+2	; 0x02
     a08:	9b 81       	ldd	r25, Y+3	; 0x03
     a0a:	fc 01       	movw	r30, r24
     a0c:	84 8d       	ldd	r24, Z+28	; 0x1c
     a0e:	28 17       	cp	r18, r24
     a10:	79 f4       	brne	.+30     	; 0xa30 <_ZN14HardwareSerial5writeEh+0x4e>
     a12:	8a 81       	ldd	r24, Y+2	; 0x02
     a14:	9b 81       	ldd	r25, Y+3	; 0x03
     a16:	fc 01       	movw	r30, r24
     a18:	80 89       	ldd	r24, Z+16	; 0x10
     a1a:	91 89       	ldd	r25, Z+17	; 0x11
     a1c:	fc 01       	movw	r30, r24
     a1e:	80 81       	ld	r24, Z
     a20:	88 2f       	mov	r24, r24
     a22:	90 e0       	ldi	r25, 0x00	; 0
     a24:	80 72       	andi	r24, 0x20	; 32
     a26:	99 27       	eor	r25, r25
     a28:	89 2b       	or	r24, r25
     a2a:	11 f0       	breq	.+4      	; 0xa30 <_ZN14HardwareSerial5writeEh+0x4e>
     a2c:	81 e0       	ldi	r24, 0x01	; 1
     a2e:	01 c0       	rjmp	.+2      	; 0xa32 <_ZN14HardwareSerial5writeEh+0x50>
     a30:	80 e0       	ldi	r24, 0x00	; 0
     a32:	88 23       	and	r24, r24
     a34:	d1 f0       	breq	.+52     	; 0xa6a <_ZN14HardwareSerial5writeEh+0x88>
     a36:	8a 81       	ldd	r24, Y+2	; 0x02
     a38:	9b 81       	ldd	r25, Y+3	; 0x03
     a3a:	fc 01       	movw	r30, r24
     a3c:	86 89       	ldd	r24, Z+22	; 0x16
     a3e:	97 89       	ldd	r25, Z+23	; 0x17
     a40:	2c 81       	ldd	r18, Y+4	; 0x04
     a42:	fc 01       	movw	r30, r24
     a44:	20 83       	st	Z, r18
     a46:	8a 81       	ldd	r24, Y+2	; 0x02
     a48:	9b 81       	ldd	r25, Y+3	; 0x03
     a4a:	fc 01       	movw	r30, r24
     a4c:	80 89       	ldd	r24, Z+16	; 0x10
     a4e:	91 89       	ldd	r25, Z+17	; 0x11
     a50:	2a 81       	ldd	r18, Y+2	; 0x02
     a52:	3b 81       	ldd	r19, Y+3	; 0x03
     a54:	f9 01       	movw	r30, r18
     a56:	20 89       	ldd	r18, Z+16	; 0x10
     a58:	31 89       	ldd	r19, Z+17	; 0x11
     a5a:	f9 01       	movw	r30, r18
     a5c:	20 81       	ld	r18, Z
     a5e:	20 64       	ori	r18, 0x40	; 64
     a60:	fc 01       	movw	r30, r24
     a62:	20 83       	st	Z, r18
     a64:	81 e0       	ldi	r24, 0x01	; 1
     a66:	90 e0       	ldi	r25, 0x00	; 0
     a68:	60 c0       	rjmp	.+192    	; 0xb2a <_ZN14HardwareSerial5writeEh+0x148>
     a6a:	8a 81       	ldd	r24, Y+2	; 0x02
     a6c:	9b 81       	ldd	r25, Y+3	; 0x03
     a6e:	fc 01       	movw	r30, r24
     a70:	83 8d       	ldd	r24, Z+27	; 0x1b
     a72:	88 2f       	mov	r24, r24
     a74:	90 e0       	ldi	r25, 0x00	; 0
     a76:	01 96       	adiw	r24, 0x01	; 1
     a78:	8f 77       	andi	r24, 0x7F	; 127
     a7a:	90 78       	andi	r25, 0x80	; 128
     a7c:	99 23       	and	r25, r25
     a7e:	24 f4       	brge	.+8      	; 0xa88 <_ZN14HardwareSerial5writeEh+0xa6>
     a80:	01 97       	sbiw	r24, 0x01	; 1
     a82:	80 68       	ori	r24, 0x80	; 128
     a84:	9f 6f       	ori	r25, 0xFF	; 255
     a86:	01 96       	adiw	r24, 0x01	; 1
     a88:	89 83       	std	Y+1, r24	; 0x01
     a8a:	1f c0       	rjmp	.+62     	; 0xaca <_ZN14HardwareSerial5writeEh+0xe8>
     a8c:	8f e5       	ldi	r24, 0x5F	; 95
     a8e:	90 e0       	ldi	r25, 0x00	; 0
     a90:	fc 01       	movw	r30, r24
     a92:	80 81       	ld	r24, Z
     a94:	80 95       	com	r24
     a96:	88 1f       	adc	r24, r24
     a98:	88 27       	eor	r24, r24
     a9a:	88 1f       	adc	r24, r24
     a9c:	88 23       	and	r24, r24
     a9e:	a9 f0       	breq	.+42     	; 0xaca <_ZN14HardwareSerial5writeEh+0xe8>
     aa0:	8a 81       	ldd	r24, Y+2	; 0x02
     aa2:	9b 81       	ldd	r25, Y+3	; 0x03
     aa4:	fc 01       	movw	r30, r24
     aa6:	80 89       	ldd	r24, Z+16	; 0x10
     aa8:	91 89       	ldd	r25, Z+17	; 0x11
     aaa:	fc 01       	movw	r30, r24
     aac:	80 81       	ld	r24, Z
     aae:	88 2f       	mov	r24, r24
     ab0:	90 e0       	ldi	r25, 0x00	; 0
     ab2:	80 72       	andi	r24, 0x20	; 32
     ab4:	99 27       	eor	r25, r25
     ab6:	21 e0       	ldi	r18, 0x01	; 1
     ab8:	89 2b       	or	r24, r25
     aba:	09 f4       	brne	.+2      	; 0xabe <_ZN14HardwareSerial5writeEh+0xdc>
     abc:	20 e0       	ldi	r18, 0x00	; 0
     abe:	22 23       	and	r18, r18
     ac0:	21 f0       	breq	.+8      	; 0xaca <_ZN14HardwareSerial5writeEh+0xe8>
     ac2:	8a 81       	ldd	r24, Y+2	; 0x02
     ac4:	9b 81       	ldd	r25, Y+3	; 0x03
     ac6:	0e 94 e1 02 	call	0x5c2	; 0x5c2 <_ZN14HardwareSerial17_tx_udr_empty_irqEv>
     aca:	8a 81       	ldd	r24, Y+2	; 0x02
     acc:	9b 81       	ldd	r25, Y+3	; 0x03
     ace:	fc 01       	movw	r30, r24
     ad0:	24 8d       	ldd	r18, Z+28	; 0x1c
     ad2:	81 e0       	ldi	r24, 0x01	; 1
     ad4:	99 81       	ldd	r25, Y+1	; 0x01
     ad6:	29 17       	cp	r18, r25
     ad8:	09 f0       	breq	.+2      	; 0xadc <_ZN14HardwareSerial5writeEh+0xfa>
     ada:	80 e0       	ldi	r24, 0x00	; 0
     adc:	88 23       	and	r24, r24
     ade:	b1 f6       	brne	.-84     	; 0xa8c <_ZN14HardwareSerial5writeEh+0xaa>
     ae0:	8a 81       	ldd	r24, Y+2	; 0x02
     ae2:	9b 81       	ldd	r25, Y+3	; 0x03
     ae4:	fc 01       	movw	r30, r24
     ae6:	83 8d       	ldd	r24, Z+27	; 0x1b
     ae8:	88 2f       	mov	r24, r24
     aea:	90 e0       	ldi	r25, 0x00	; 0
     aec:	2a 81       	ldd	r18, Y+2	; 0x02
     aee:	3b 81       	ldd	r19, Y+3	; 0x03
     af0:	82 0f       	add	r24, r18
     af2:	93 1f       	adc	r25, r19
     af4:	83 5a       	subi	r24, 0xA3	; 163
     af6:	9f 4f       	sbci	r25, 0xFF	; 255
     af8:	2c 81       	ldd	r18, Y+4	; 0x04
     afa:	fc 01       	movw	r30, r24
     afc:	20 83       	st	Z, r18
     afe:	8a 81       	ldd	r24, Y+2	; 0x02
     b00:	9b 81       	ldd	r25, Y+3	; 0x03
     b02:	29 81       	ldd	r18, Y+1	; 0x01
     b04:	fc 01       	movw	r30, r24
     b06:	23 8f       	std	Z+27, r18	; 0x1b
     b08:	8a 81       	ldd	r24, Y+2	; 0x02
     b0a:	9b 81       	ldd	r25, Y+3	; 0x03
     b0c:	fc 01       	movw	r30, r24
     b0e:	82 89       	ldd	r24, Z+18	; 0x12
     b10:	93 89       	ldd	r25, Z+19	; 0x13
     b12:	2a 81       	ldd	r18, Y+2	; 0x02
     b14:	3b 81       	ldd	r19, Y+3	; 0x03
     b16:	f9 01       	movw	r30, r18
     b18:	22 89       	ldd	r18, Z+18	; 0x12
     b1a:	33 89       	ldd	r19, Z+19	; 0x13
     b1c:	f9 01       	movw	r30, r18
     b1e:	20 81       	ld	r18, Z
     b20:	20 62       	ori	r18, 0x20	; 32
     b22:	fc 01       	movw	r30, r24
     b24:	20 83       	st	Z, r18
     b26:	81 e0       	ldi	r24, 0x01	; 1
     b28:	90 e0       	ldi	r25, 0x00	; 0
     b2a:	0f 90       	pop	r0
     b2c:	0f 90       	pop	r0
     b2e:	0f 90       	pop	r0
     b30:	0f 90       	pop	r0
     b32:	df 91       	pop	r29
     b34:	cf 91       	pop	r28
     b36:	08 95       	ret

00000b38 <_ZN5PrintC1Ev>:
     b38:	cf 93       	push	r28
     b3a:	df 93       	push	r29
     b3c:	00 d0       	rcall	.+0      	; 0xb3e <_ZN5PrintC1Ev+0x6>
     b3e:	cd b7       	in	r28, 0x3d	; 61
     b40:	de b7       	in	r29, 0x3e	; 62
     b42:	9a 83       	std	Y+2, r25	; 0x02
     b44:	89 83       	std	Y+1, r24	; 0x01
     b46:	89 81       	ldd	r24, Y+1	; 0x01
     b48:	9a 81       	ldd	r25, Y+2	; 0x02
     b4a:	2f e6       	ldi	r18, 0x6F	; 111
     b4c:	31 e0       	ldi	r19, 0x01	; 1
     b4e:	fc 01       	movw	r30, r24
     b50:	31 83       	std	Z+1, r19	; 0x01
     b52:	20 83       	st	Z, r18
     b54:	89 81       	ldd	r24, Y+1	; 0x01
     b56:	9a 81       	ldd	r25, Y+2	; 0x02
     b58:	fc 01       	movw	r30, r24
     b5a:	13 82       	std	Z+3, r1	; 0x03
     b5c:	12 82       	std	Z+2, r1	; 0x02
     b5e:	0f 90       	pop	r0
     b60:	0f 90       	pop	r0
     b62:	df 91       	pop	r29
     b64:	cf 91       	pop	r28
     b66:	08 95       	ret

00000b68 <_ZN6StreamC1Ev>:
     b68:	cf 93       	push	r28
     b6a:	df 93       	push	r29
     b6c:	00 d0       	rcall	.+0      	; 0xb6e <_ZN6StreamC1Ev+0x6>
     b6e:	cd b7       	in	r28, 0x3d	; 61
     b70:	de b7       	in	r29, 0x3e	; 62
     b72:	9a 83       	std	Y+2, r25	; 0x02
     b74:	89 83       	std	Y+1, r24	; 0x01
     b76:	89 81       	ldd	r24, Y+1	; 0x01
     b78:	9a 81       	ldd	r25, Y+2	; 0x02
     b7a:	0e 94 9c 05 	call	0xb38	; 0xb38 <_ZN5PrintC1Ev>
     b7e:	89 81       	ldd	r24, Y+1	; 0x01
     b80:	9a 81       	ldd	r25, Y+2	; 0x02
     b82:	2f e5       	ldi	r18, 0x5F	; 95
     b84:	31 e0       	ldi	r19, 0x01	; 1
     b86:	fc 01       	movw	r30, r24
     b88:	31 83       	std	Z+1, r19	; 0x01
     b8a:	20 83       	st	Z, r18
     b8c:	29 81       	ldd	r18, Y+1	; 0x01
     b8e:	3a 81       	ldd	r19, Y+2	; 0x02
     b90:	88 ee       	ldi	r24, 0xE8	; 232
     b92:	93 e0       	ldi	r25, 0x03	; 3
     b94:	a0 e0       	ldi	r26, 0x00	; 0
     b96:	b0 e0       	ldi	r27, 0x00	; 0
     b98:	f9 01       	movw	r30, r18
     b9a:	84 83       	std	Z+4, r24	; 0x04
     b9c:	95 83       	std	Z+5, r25	; 0x05
     b9e:	a6 83       	std	Z+6, r26	; 0x06
     ba0:	b7 83       	std	Z+7, r27	; 0x07
     ba2:	0f 90       	pop	r0
     ba4:	0f 90       	pop	r0
     ba6:	df 91       	pop	r29
     ba8:	cf 91       	pop	r28
     baa:	08 95       	ret

00000bac <_ZN14HardwareSerialC1EPVhS1_S1_S1_S1_S1_>:
     bac:	cf 92       	push	r12
     bae:	df 92       	push	r13
     bb0:	ef 92       	push	r14
     bb2:	ff 92       	push	r15
     bb4:	0f 93       	push	r16
     bb6:	1f 93       	push	r17
     bb8:	cf 93       	push	r28
     bba:	df 93       	push	r29
     bbc:	cd b7       	in	r28, 0x3d	; 61
     bbe:	de b7       	in	r29, 0x3e	; 62
     bc0:	2e 97       	sbiw	r28, 0x0e	; 14
     bc2:	0f b6       	in	r0, 0x3f	; 63
     bc4:	f8 94       	cli
     bc6:	de bf       	out	0x3e, r29	; 62
     bc8:	0f be       	out	0x3f, r0	; 63
     bca:	cd bf       	out	0x3d, r28	; 61
     bcc:	9a 83       	std	Y+2, r25	; 0x02
     bce:	89 83       	std	Y+1, r24	; 0x01
     bd0:	7c 83       	std	Y+4, r23	; 0x04
     bd2:	6b 83       	std	Y+3, r22	; 0x03
     bd4:	5e 83       	std	Y+6, r21	; 0x06
     bd6:	4d 83       	std	Y+5, r20	; 0x05
     bd8:	38 87       	std	Y+8, r19	; 0x08
     bda:	2f 83       	std	Y+7, r18	; 0x07
     bdc:	1a 87       	std	Y+10, r17	; 0x0a
     bde:	09 87       	std	Y+9, r16	; 0x09
     be0:	fc 86       	std	Y+12, r15	; 0x0c
     be2:	eb 86       	std	Y+11, r14	; 0x0b
     be4:	de 86       	std	Y+14, r13	; 0x0e
     be6:	cd 86       	std	Y+13, r12	; 0x0d
     be8:	89 81       	ldd	r24, Y+1	; 0x01
     bea:	9a 81       	ldd	r25, Y+2	; 0x02
     bec:	0e 94 b4 05 	call	0xb68	; 0xb68 <_ZN6StreamC1Ev>
     bf0:	89 81       	ldd	r24, Y+1	; 0x01
     bf2:	9a 81       	ldd	r25, Y+2	; 0x02
     bf4:	2f e4       	ldi	r18, 0x4F	; 79
     bf6:	31 e0       	ldi	r19, 0x01	; 1
     bf8:	fc 01       	movw	r30, r24
     bfa:	31 83       	std	Z+1, r19	; 0x01
     bfc:	20 83       	st	Z, r18
     bfe:	89 81       	ldd	r24, Y+1	; 0x01
     c00:	9a 81       	ldd	r25, Y+2	; 0x02
     c02:	2b 81       	ldd	r18, Y+3	; 0x03
     c04:	3c 81       	ldd	r19, Y+4	; 0x04
     c06:	fc 01       	movw	r30, r24
     c08:	35 87       	std	Z+13, r19	; 0x0d
     c0a:	24 87       	std	Z+12, r18	; 0x0c
     c0c:	89 81       	ldd	r24, Y+1	; 0x01
     c0e:	9a 81       	ldd	r25, Y+2	; 0x02
     c10:	2d 81       	ldd	r18, Y+5	; 0x05
     c12:	3e 81       	ldd	r19, Y+6	; 0x06
     c14:	fc 01       	movw	r30, r24
     c16:	37 87       	std	Z+15, r19	; 0x0f
     c18:	26 87       	std	Z+14, r18	; 0x0e
     c1a:	89 81       	ldd	r24, Y+1	; 0x01
     c1c:	9a 81       	ldd	r25, Y+2	; 0x02
     c1e:	2f 81       	ldd	r18, Y+7	; 0x07
     c20:	38 85       	ldd	r19, Y+8	; 0x08
     c22:	fc 01       	movw	r30, r24
     c24:	31 8b       	std	Z+17, r19	; 0x11
     c26:	20 8b       	std	Z+16, r18	; 0x10
     c28:	89 81       	ldd	r24, Y+1	; 0x01
     c2a:	9a 81       	ldd	r25, Y+2	; 0x02
     c2c:	29 85       	ldd	r18, Y+9	; 0x09
     c2e:	3a 85       	ldd	r19, Y+10	; 0x0a
     c30:	fc 01       	movw	r30, r24
     c32:	33 8b       	std	Z+19, r19	; 0x13
     c34:	22 8b       	std	Z+18, r18	; 0x12
     c36:	89 81       	ldd	r24, Y+1	; 0x01
     c38:	9a 81       	ldd	r25, Y+2	; 0x02
     c3a:	2b 85       	ldd	r18, Y+11	; 0x0b
     c3c:	3c 85       	ldd	r19, Y+12	; 0x0c
     c3e:	fc 01       	movw	r30, r24
     c40:	35 8b       	std	Z+21, r19	; 0x15
     c42:	24 8b       	std	Z+20, r18	; 0x14
     c44:	89 81       	ldd	r24, Y+1	; 0x01
     c46:	9a 81       	ldd	r25, Y+2	; 0x02
     c48:	2d 85       	ldd	r18, Y+13	; 0x0d
     c4a:	3e 85       	ldd	r19, Y+14	; 0x0e
     c4c:	fc 01       	movw	r30, r24
     c4e:	37 8b       	std	Z+23, r19	; 0x17
     c50:	26 8b       	std	Z+22, r18	; 0x16
     c52:	89 81       	ldd	r24, Y+1	; 0x01
     c54:	9a 81       	ldd	r25, Y+2	; 0x02
     c56:	fc 01       	movw	r30, r24
     c58:	11 8e       	std	Z+25, r1	; 0x19
     c5a:	89 81       	ldd	r24, Y+1	; 0x01
     c5c:	9a 81       	ldd	r25, Y+2	; 0x02
     c5e:	fc 01       	movw	r30, r24
     c60:	12 8e       	std	Z+26, r1	; 0x1a
     c62:	89 81       	ldd	r24, Y+1	; 0x01
     c64:	9a 81       	ldd	r25, Y+2	; 0x02
     c66:	fc 01       	movw	r30, r24
     c68:	13 8e       	std	Z+27, r1	; 0x1b
     c6a:	89 81       	ldd	r24, Y+1	; 0x01
     c6c:	9a 81       	ldd	r25, Y+2	; 0x02
     c6e:	fc 01       	movw	r30, r24
     c70:	14 8e       	std	Z+28, r1	; 0x1c
     c72:	2e 96       	adiw	r28, 0x0e	; 14
     c74:	0f b6       	in	r0, 0x3f	; 63
     c76:	f8 94       	cli
     c78:	de bf       	out	0x3e, r29	; 62
     c7a:	0f be       	out	0x3f, r0	; 63
     c7c:	cd bf       	out	0x3d, r28	; 61
     c7e:	df 91       	pop	r29
     c80:	cf 91       	pop	r28
     c82:	1f 91       	pop	r17
     c84:	0f 91       	pop	r16
     c86:	ff 90       	pop	r15
     c88:	ef 90       	pop	r14
     c8a:	df 90       	pop	r13
     c8c:	cf 90       	pop	r12
     c8e:	08 95       	ret

00000c90 <_ZN14HardwareSerial16_rx_complete_irqEv>:
     c90:	cf 93       	push	r28
     c92:	df 93       	push	r29
     c94:	00 d0       	rcall	.+0      	; 0xc96 <_ZN14HardwareSerial16_rx_complete_irqEv+0x6>
     c96:	00 d0       	rcall	.+0      	; 0xc98 <_ZN14HardwareSerial16_rx_complete_irqEv+0x8>
     c98:	cd b7       	in	r28, 0x3d	; 61
     c9a:	de b7       	in	r29, 0x3e	; 62
     c9c:	9c 83       	std	Y+4, r25	; 0x04
     c9e:	8b 83       	std	Y+3, r24	; 0x03
     ca0:	8b 81       	ldd	r24, Y+3	; 0x03
     ca2:	9c 81       	ldd	r25, Y+4	; 0x04
     ca4:	fc 01       	movw	r30, r24
     ca6:	80 89       	ldd	r24, Z+16	; 0x10
     ca8:	91 89       	ldd	r25, Z+17	; 0x11
     caa:	fc 01       	movw	r30, r24
     cac:	80 81       	ld	r24, Z
     cae:	88 2f       	mov	r24, r24
     cb0:	90 e0       	ldi	r25, 0x00	; 0
     cb2:	84 70       	andi	r24, 0x04	; 4
     cb4:	99 27       	eor	r25, r25
     cb6:	21 e0       	ldi	r18, 0x01	; 1
     cb8:	89 2b       	or	r24, r25
     cba:	09 f0       	breq	.+2      	; 0xcbe <_ZN14HardwareSerial16_rx_complete_irqEv+0x2e>
     cbc:	20 e0       	ldi	r18, 0x00	; 0
     cbe:	22 23       	and	r18, r18
     cc0:	71 f1       	breq	.+92     	; 0xd1e <_ZN14HardwareSerial16_rx_complete_irqEv+0x8e>
     cc2:	8b 81       	ldd	r24, Y+3	; 0x03
     cc4:	9c 81       	ldd	r25, Y+4	; 0x04
     cc6:	fc 01       	movw	r30, r24
     cc8:	86 89       	ldd	r24, Z+22	; 0x16
     cca:	97 89       	ldd	r25, Z+23	; 0x17
     ccc:	fc 01       	movw	r30, r24
     cce:	80 81       	ld	r24, Z
     cd0:	89 83       	std	Y+1, r24	; 0x01
     cd2:	8b 81       	ldd	r24, Y+3	; 0x03
     cd4:	9c 81       	ldd	r25, Y+4	; 0x04
     cd6:	fc 01       	movw	r30, r24
     cd8:	81 8d       	ldd	r24, Z+25	; 0x19
     cda:	8f 5f       	subi	r24, 0xFF	; 255
     cdc:	8f 73       	andi	r24, 0x3F	; 63
     cde:	8a 83       	std	Y+2, r24	; 0x02
     ce0:	8b 81       	ldd	r24, Y+3	; 0x03
     ce2:	9c 81       	ldd	r25, Y+4	; 0x04
     ce4:	fc 01       	movw	r30, r24
     ce6:	22 8d       	ldd	r18, Z+26	; 0x1a
     ce8:	81 e0       	ldi	r24, 0x01	; 1
     cea:	9a 81       	ldd	r25, Y+2	; 0x02
     cec:	29 17       	cp	r18, r25
     cee:	09 f4       	brne	.+2      	; 0xcf2 <_ZN14HardwareSerial16_rx_complete_irqEv+0x62>
     cf0:	80 e0       	ldi	r24, 0x00	; 0
     cf2:	88 23       	and	r24, r24
     cf4:	99 f0       	breq	.+38     	; 0xd1c <_ZN14HardwareSerial16_rx_complete_irqEv+0x8c>
     cf6:	8b 81       	ldd	r24, Y+3	; 0x03
     cf8:	9c 81       	ldd	r25, Y+4	; 0x04
     cfa:	fc 01       	movw	r30, r24
     cfc:	81 8d       	ldd	r24, Z+25	; 0x19
     cfe:	88 2f       	mov	r24, r24
     d00:	90 e0       	ldi	r25, 0x00	; 0
     d02:	2b 81       	ldd	r18, Y+3	; 0x03
     d04:	3c 81       	ldd	r19, Y+4	; 0x04
     d06:	82 0f       	add	r24, r18
     d08:	93 1f       	adc	r25, r19
     d0a:	4d 96       	adiw	r24, 0x1d	; 29
     d0c:	29 81       	ldd	r18, Y+1	; 0x01
     d0e:	fc 01       	movw	r30, r24
     d10:	20 83       	st	Z, r18
     d12:	8b 81       	ldd	r24, Y+3	; 0x03
     d14:	9c 81       	ldd	r25, Y+4	; 0x04
     d16:	2a 81       	ldd	r18, Y+2	; 0x02
     d18:	fc 01       	movw	r30, r24
     d1a:	21 8f       	std	Z+25, r18	; 0x19
     d1c:	07 c0       	rjmp	.+14     	; 0xd2c <_ZN14HardwareSerial16_rx_complete_irqEv+0x9c>
     d1e:	8b 81       	ldd	r24, Y+3	; 0x03
     d20:	9c 81       	ldd	r25, Y+4	; 0x04
     d22:	fc 01       	movw	r30, r24
     d24:	86 89       	ldd	r24, Z+22	; 0x16
     d26:	97 89       	ldd	r25, Z+23	; 0x17
     d28:	fc 01       	movw	r30, r24
     d2a:	80 81       	ld	r24, Z
     d2c:	0f 90       	pop	r0
     d2e:	0f 90       	pop	r0
     d30:	0f 90       	pop	r0
     d32:	0f 90       	pop	r0
     d34:	df 91       	pop	r29
     d36:	cf 91       	pop	r28
     d38:	08 95       	ret

00000d3a <__vector_18>:
     d3a:	1f 92       	push	r1
     d3c:	0f 92       	push	r0
     d3e:	00 90 5f 00 	lds	r0, 0x005F
     d42:	0f 92       	push	r0
     d44:	11 24       	eor	r1, r1
     d46:	2f 93       	push	r18
     d48:	3f 93       	push	r19
     d4a:	4f 93       	push	r20
     d4c:	5f 93       	push	r21
     d4e:	6f 93       	push	r22
     d50:	7f 93       	push	r23
     d52:	8f 93       	push	r24
     d54:	9f 93       	push	r25
     d56:	af 93       	push	r26
     d58:	bf 93       	push	r27
     d5a:	ef 93       	push	r30
     d5c:	ff 93       	push	r31
     d5e:	cf 93       	push	r28
     d60:	df 93       	push	r29
     d62:	cd b7       	in	r28, 0x3d	; 61
     d64:	de b7       	in	r29, 0x3e	; 62
     d66:	88 e7       	ldi	r24, 0x78	; 120
     d68:	91 e0       	ldi	r25, 0x01	; 1
     d6a:	0e 94 48 06 	call	0xc90	; 0xc90 <_ZN14HardwareSerial16_rx_complete_irqEv>
     d6e:	df 91       	pop	r29
     d70:	cf 91       	pop	r28
     d72:	ff 91       	pop	r31
     d74:	ef 91       	pop	r30
     d76:	bf 91       	pop	r27
     d78:	af 91       	pop	r26
     d7a:	9f 91       	pop	r25
     d7c:	8f 91       	pop	r24
     d7e:	7f 91       	pop	r23
     d80:	6f 91       	pop	r22
     d82:	5f 91       	pop	r21
     d84:	4f 91       	pop	r20
     d86:	3f 91       	pop	r19
     d88:	2f 91       	pop	r18
     d8a:	0f 90       	pop	r0
     d8c:	00 92 5f 00 	sts	0x005F, r0
     d90:	0f 90       	pop	r0
     d92:	1f 90       	pop	r1
     d94:	18 95       	reti

00000d96 <__vector_19>:
     d96:	1f 92       	push	r1
     d98:	0f 92       	push	r0
     d9a:	00 90 5f 00 	lds	r0, 0x005F
     d9e:	0f 92       	push	r0
     da0:	11 24       	eor	r1, r1
     da2:	2f 93       	push	r18
     da4:	3f 93       	push	r19
     da6:	4f 93       	push	r20
     da8:	5f 93       	push	r21
     daa:	6f 93       	push	r22
     dac:	7f 93       	push	r23
     dae:	8f 93       	push	r24
     db0:	9f 93       	push	r25
     db2:	af 93       	push	r26
     db4:	bf 93       	push	r27
     db6:	ef 93       	push	r30
     db8:	ff 93       	push	r31
     dba:	cf 93       	push	r28
     dbc:	df 93       	push	r29
     dbe:	cd b7       	in	r28, 0x3d	; 61
     dc0:	de b7       	in	r29, 0x3e	; 62
     dc2:	88 e7       	ldi	r24, 0x78	; 120
     dc4:	91 e0       	ldi	r25, 0x01	; 1
     dc6:	0e 94 e1 02 	call	0x5c2	; 0x5c2 <_ZN14HardwareSerial17_tx_udr_empty_irqEv>
     dca:	df 91       	pop	r29
     dcc:	cf 91       	pop	r28
     dce:	ff 91       	pop	r31
     dd0:	ef 91       	pop	r30
     dd2:	bf 91       	pop	r27
     dd4:	af 91       	pop	r26
     dd6:	9f 91       	pop	r25
     dd8:	8f 91       	pop	r24
     dda:	7f 91       	pop	r23
     ddc:	6f 91       	pop	r22
     dde:	5f 91       	pop	r21
     de0:	4f 91       	pop	r20
     de2:	3f 91       	pop	r19
     de4:	2f 91       	pop	r18
     de6:	0f 90       	pop	r0
     de8:	00 92 5f 00 	sts	0x005F, r0
     dec:	0f 90       	pop	r0
     dee:	1f 90       	pop	r1
     df0:	18 95       	reti

00000df2 <_Z41__static_initialization_and_destruction_0ii>:
     df2:	cf 92       	push	r12
     df4:	df 92       	push	r13
     df6:	ef 92       	push	r14
     df8:	ff 92       	push	r15
     dfa:	0f 93       	push	r16
     dfc:	1f 93       	push	r17
     dfe:	cf 93       	push	r28
     e00:	df 93       	push	r29
     e02:	00 d0       	rcall	.+0      	; 0xe04 <_Z41__static_initialization_and_destruction_0ii+0x12>
     e04:	00 d0       	rcall	.+0      	; 0xe06 <_Z41__static_initialization_and_destruction_0ii+0x14>
     e06:	cd b7       	in	r28, 0x3d	; 61
     e08:	de b7       	in	r29, 0x3e	; 62
     e0a:	9a 83       	std	Y+2, r25	; 0x02
     e0c:	89 83       	std	Y+1, r24	; 0x01
     e0e:	7c 83       	std	Y+4, r23	; 0x04
     e10:	6b 83       	std	Y+3, r22	; 0x03
     e12:	89 81       	ldd	r24, Y+1	; 0x01
     e14:	9a 81       	ldd	r25, Y+2	; 0x02
     e16:	01 97       	sbiw	r24, 0x01	; 1
     e18:	d1 f4       	brne	.+52     	; 0xe4e <_Z41__static_initialization_and_destruction_0ii+0x5c>
     e1a:	8b 81       	ldd	r24, Y+3	; 0x03
     e1c:	9c 81       	ldd	r25, Y+4	; 0x04
     e1e:	01 96       	adiw	r24, 0x01	; 1
     e20:	b1 f4       	brne	.+44     	; 0xe4e <_Z41__static_initialization_and_destruction_0ii+0x5c>
     e22:	0f 2e       	mov	r0, r31
     e24:	f6 ec       	ldi	r31, 0xC6	; 198
     e26:	cf 2e       	mov	r12, r31
     e28:	d1 2c       	mov	r13, r1
     e2a:	f0 2d       	mov	r31, r0
     e2c:	0f 2e       	mov	r0, r31
     e2e:	f2 ec       	ldi	r31, 0xC2	; 194
     e30:	ef 2e       	mov	r14, r31
     e32:	f1 2c       	mov	r15, r1
     e34:	f0 2d       	mov	r31, r0
     e36:	01 ec       	ldi	r16, 0xC1	; 193
     e38:	10 e0       	ldi	r17, 0x00	; 0
     e3a:	20 ec       	ldi	r18, 0xC0	; 192
     e3c:	30 e0       	ldi	r19, 0x00	; 0
     e3e:	44 ec       	ldi	r20, 0xC4	; 196
     e40:	50 e0       	ldi	r21, 0x00	; 0
     e42:	65 ec       	ldi	r22, 0xC5	; 197
     e44:	70 e0       	ldi	r23, 0x00	; 0
     e46:	88 e7       	ldi	r24, 0x78	; 120
     e48:	91 e0       	ldi	r25, 0x01	; 1
     e4a:	0e 94 d6 05 	call	0xbac	; 0xbac <_ZN14HardwareSerialC1EPVhS1_S1_S1_S1_S1_>
     e4e:	0f 90       	pop	r0
     e50:	0f 90       	pop	r0
     e52:	0f 90       	pop	r0
     e54:	0f 90       	pop	r0
     e56:	df 91       	pop	r29
     e58:	cf 91       	pop	r28
     e5a:	1f 91       	pop	r17
     e5c:	0f 91       	pop	r16
     e5e:	ff 90       	pop	r15
     e60:	ef 90       	pop	r14
     e62:	df 90       	pop	r13
     e64:	cf 90       	pop	r12
     e66:	08 95       	ret

00000e68 <_GLOBAL__sub_I___vector_18>:
     e68:	cf 93       	push	r28
     e6a:	df 93       	push	r29
     e6c:	cd b7       	in	r28, 0x3d	; 61
     e6e:	de b7       	in	r29, 0x3e	; 62
     e70:	6f ef       	ldi	r22, 0xFF	; 255
     e72:	7f ef       	ldi	r23, 0xFF	; 255
     e74:	81 e0       	ldi	r24, 0x01	; 1
     e76:	90 e0       	ldi	r25, 0x00	; 0
     e78:	0e 94 f9 06 	call	0xdf2	; 0xdf2 <_Z41__static_initialization_and_destruction_0ii>
     e7c:	df 91       	pop	r29
     e7e:	cf 91       	pop	r28
     e80:	08 95       	ret

00000e82 <_ZN5Print5writeEPKc>:
     e82:	0f 93       	push	r16
     e84:	1f 93       	push	r17
     e86:	cf 93       	push	r28
     e88:	df 93       	push	r29
     e8a:	00 d0       	rcall	.+0      	; 0xe8c <_ZN5Print5writeEPKc+0xa>
     e8c:	00 d0       	rcall	.+0      	; 0xe8e <_ZN5Print5writeEPKc+0xc>
     e8e:	cd b7       	in	r28, 0x3d	; 61
     e90:	de b7       	in	r29, 0x3e	; 62
     e92:	9a 83       	std	Y+2, r25	; 0x02
     e94:	89 83       	std	Y+1, r24	; 0x01
     e96:	7c 83       	std	Y+4, r23	; 0x04
     e98:	6b 83       	std	Y+3, r22	; 0x03
     e9a:	8b 81       	ldd	r24, Y+3	; 0x03
     e9c:	9c 81       	ldd	r25, Y+4	; 0x04
     e9e:	89 2b       	or	r24, r25
     ea0:	19 f4       	brne	.+6      	; 0xea8 <_ZN5Print5writeEPKc+0x26>
     ea2:	80 e0       	ldi	r24, 0x00	; 0
     ea4:	90 e0       	ldi	r25, 0x00	; 0
     ea6:	15 c0       	rjmp	.+42     	; 0xed2 <_ZN5Print5writeEPKc+0x50>
     ea8:	89 81       	ldd	r24, Y+1	; 0x01
     eaa:	9a 81       	ldd	r25, Y+2	; 0x02
     eac:	fc 01       	movw	r30, r24
     eae:	80 81       	ld	r24, Z
     eb0:	91 81       	ldd	r25, Z+1	; 0x01
     eb2:	02 96       	adiw	r24, 0x02	; 2
     eb4:	fc 01       	movw	r30, r24
     eb6:	00 81       	ld	r16, Z
     eb8:	11 81       	ldd	r17, Z+1	; 0x01
     eba:	8b 81       	ldd	r24, Y+3	; 0x03
     ebc:	9c 81       	ldd	r25, Y+4	; 0x04
     ebe:	0e 94 fa 16 	call	0x2df4	; 0x2df4 <strlen>
     ec2:	ac 01       	movw	r20, r24
     ec4:	2b 81       	ldd	r18, Y+3	; 0x03
     ec6:	3c 81       	ldd	r19, Y+4	; 0x04
     ec8:	89 81       	ldd	r24, Y+1	; 0x01
     eca:	9a 81       	ldd	r25, Y+2	; 0x02
     ecc:	b9 01       	movw	r22, r18
     ece:	f8 01       	movw	r30, r16
     ed0:	09 95       	icall
     ed2:	0f 90       	pop	r0
     ed4:	0f 90       	pop	r0
     ed6:	0f 90       	pop	r0
     ed8:	0f 90       	pop	r0
     eda:	df 91       	pop	r29
     edc:	cf 91       	pop	r28
     ede:	1f 91       	pop	r17
     ee0:	0f 91       	pop	r16
     ee2:	08 95       	ret

00000ee4 <_ZN5Print5writeEPKhj>:
     ee4:	cf 93       	push	r28
     ee6:	df 93       	push	r29
     ee8:	cd b7       	in	r28, 0x3d	; 61
     eea:	de b7       	in	r29, 0x3e	; 62
     eec:	28 97       	sbiw	r28, 0x08	; 8
     eee:	0f b6       	in	r0, 0x3f	; 63
     ef0:	f8 94       	cli
     ef2:	de bf       	out	0x3e, r29	; 62
     ef4:	0f be       	out	0x3f, r0	; 63
     ef6:	cd bf       	out	0x3d, r28	; 61
     ef8:	9c 83       	std	Y+4, r25	; 0x04
     efa:	8b 83       	std	Y+3, r24	; 0x03
     efc:	7e 83       	std	Y+6, r23	; 0x06
     efe:	6d 83       	std	Y+5, r22	; 0x05
     f00:	58 87       	std	Y+8, r21	; 0x08
     f02:	4f 83       	std	Y+7, r20	; 0x07
     f04:	1a 82       	std	Y+2, r1	; 0x02
     f06:	19 82       	std	Y+1, r1	; 0x01
     f08:	23 c0       	rjmp	.+70     	; 0xf50 <_ZN5Print5writeEPKhj+0x6c>
     f0a:	8b 81       	ldd	r24, Y+3	; 0x03
     f0c:	9c 81       	ldd	r25, Y+4	; 0x04
     f0e:	fc 01       	movw	r30, r24
     f10:	80 81       	ld	r24, Z
     f12:	91 81       	ldd	r25, Z+1	; 0x01
     f14:	fc 01       	movw	r30, r24
     f16:	20 81       	ld	r18, Z
     f18:	31 81       	ldd	r19, Z+1	; 0x01
     f1a:	8d 81       	ldd	r24, Y+5	; 0x05
     f1c:	9e 81       	ldd	r25, Y+6	; 0x06
     f1e:	ac 01       	movw	r20, r24
     f20:	4f 5f       	subi	r20, 0xFF	; 255
     f22:	5f 4f       	sbci	r21, 0xFF	; 255
     f24:	5e 83       	std	Y+6, r21	; 0x06
     f26:	4d 83       	std	Y+5, r20	; 0x05
     f28:	fc 01       	movw	r30, r24
     f2a:	40 81       	ld	r20, Z
     f2c:	8b 81       	ldd	r24, Y+3	; 0x03
     f2e:	9c 81       	ldd	r25, Y+4	; 0x04
     f30:	64 2f       	mov	r22, r20
     f32:	f9 01       	movw	r30, r18
     f34:	09 95       	icall
     f36:	21 e0       	ldi	r18, 0x01	; 1
     f38:	89 2b       	or	r24, r25
     f3a:	09 f4       	brne	.+2      	; 0xf3e <_ZN5Print5writeEPKhj+0x5a>
     f3c:	20 e0       	ldi	r18, 0x00	; 0
     f3e:	22 23       	and	r18, r18
     f40:	31 f0       	breq	.+12     	; 0xf4e <_ZN5Print5writeEPKhj+0x6a>
     f42:	89 81       	ldd	r24, Y+1	; 0x01
     f44:	9a 81       	ldd	r25, Y+2	; 0x02
     f46:	01 96       	adiw	r24, 0x01	; 1
     f48:	9a 83       	std	Y+2, r25	; 0x02
     f4a:	89 83       	std	Y+1, r24	; 0x01
     f4c:	01 c0       	rjmp	.+2      	; 0xf50 <_ZN5Print5writeEPKhj+0x6c>
     f4e:	0d c0       	rjmp	.+26     	; 0xf6a <_ZN5Print5writeEPKhj+0x86>
     f50:	8f 81       	ldd	r24, Y+7	; 0x07
     f52:	98 85       	ldd	r25, Y+8	; 0x08
     f54:	9c 01       	movw	r18, r24
     f56:	21 50       	subi	r18, 0x01	; 1
     f58:	31 09       	sbc	r19, r1
     f5a:	38 87       	std	Y+8, r19	; 0x08
     f5c:	2f 83       	std	Y+7, r18	; 0x07
     f5e:	21 e0       	ldi	r18, 0x01	; 1
     f60:	89 2b       	or	r24, r25
     f62:	09 f4       	brne	.+2      	; 0xf66 <_ZN5Print5writeEPKhj+0x82>
     f64:	20 e0       	ldi	r18, 0x00	; 0
     f66:	22 23       	and	r18, r18
     f68:	81 f6       	brne	.-96     	; 0xf0a <_ZN5Print5writeEPKhj+0x26>
     f6a:	89 81       	ldd	r24, Y+1	; 0x01
     f6c:	9a 81       	ldd	r25, Y+2	; 0x02
     f6e:	28 96       	adiw	r28, 0x08	; 8
     f70:	0f b6       	in	r0, 0x3f	; 63
     f72:	f8 94       	cli
     f74:	de bf       	out	0x3e, r29	; 62
     f76:	0f be       	out	0x3f, r0	; 63
     f78:	cd bf       	out	0x3d, r28	; 61
     f7a:	df 91       	pop	r29
     f7c:	cf 91       	pop	r28
     f7e:	08 95       	ret

00000f80 <_ZN5Print5printEPKc>:
     f80:	cf 93       	push	r28
     f82:	df 93       	push	r29
     f84:	00 d0       	rcall	.+0      	; 0xf86 <_ZN5Print5printEPKc+0x6>
     f86:	00 d0       	rcall	.+0      	; 0xf88 <_ZN5Print5printEPKc+0x8>
     f88:	cd b7       	in	r28, 0x3d	; 61
     f8a:	de b7       	in	r29, 0x3e	; 62
     f8c:	9a 83       	std	Y+2, r25	; 0x02
     f8e:	89 83       	std	Y+1, r24	; 0x01
     f90:	7c 83       	std	Y+4, r23	; 0x04
     f92:	6b 83       	std	Y+3, r22	; 0x03
     f94:	2b 81       	ldd	r18, Y+3	; 0x03
     f96:	3c 81       	ldd	r19, Y+4	; 0x04
     f98:	89 81       	ldd	r24, Y+1	; 0x01
     f9a:	9a 81       	ldd	r25, Y+2	; 0x02
     f9c:	b9 01       	movw	r22, r18
     f9e:	0e 94 41 07 	call	0xe82	; 0xe82 <_ZN5Print5writeEPKc>
     fa2:	0f 90       	pop	r0
     fa4:	0f 90       	pop	r0
     fa6:	0f 90       	pop	r0
     fa8:	0f 90       	pop	r0
     faa:	df 91       	pop	r29
     fac:	cf 91       	pop	r28
     fae:	08 95       	ret

00000fb0 <_ZN5Print5printEc>:
     fb0:	cf 93       	push	r28
     fb2:	df 93       	push	r29
     fb4:	00 d0       	rcall	.+0      	; 0xfb6 <_ZN5Print5printEc+0x6>
     fb6:	1f 92       	push	r1
     fb8:	cd b7       	in	r28, 0x3d	; 61
     fba:	de b7       	in	r29, 0x3e	; 62
     fbc:	9a 83       	std	Y+2, r25	; 0x02
     fbe:	89 83       	std	Y+1, r24	; 0x01
     fc0:	6b 83       	std	Y+3, r22	; 0x03
     fc2:	89 81       	ldd	r24, Y+1	; 0x01
     fc4:	9a 81       	ldd	r25, Y+2	; 0x02
     fc6:	fc 01       	movw	r30, r24
     fc8:	80 81       	ld	r24, Z
     fca:	91 81       	ldd	r25, Z+1	; 0x01
     fcc:	fc 01       	movw	r30, r24
     fce:	20 81       	ld	r18, Z
     fd0:	31 81       	ldd	r19, Z+1	; 0x01
     fd2:	89 81       	ldd	r24, Y+1	; 0x01
     fd4:	9a 81       	ldd	r25, Y+2	; 0x02
     fd6:	6b 81       	ldd	r22, Y+3	; 0x03
     fd8:	f9 01       	movw	r30, r18
     fda:	09 95       	icall
     fdc:	0f 90       	pop	r0
     fde:	0f 90       	pop	r0
     fe0:	0f 90       	pop	r0
     fe2:	df 91       	pop	r29
     fe4:	cf 91       	pop	r28
     fe6:	08 95       	ret

00000fe8 <_ZN5Print5printEii>:
     fe8:	cf 93       	push	r28
     fea:	df 93       	push	r29
     fec:	00 d0       	rcall	.+0      	; 0xfee <_ZN5Print5printEii+0x6>
     fee:	00 d0       	rcall	.+0      	; 0xff0 <_ZN5Print5printEii+0x8>
     ff0:	00 d0       	rcall	.+0      	; 0xff2 <_ZN5Print5printEii+0xa>
     ff2:	cd b7       	in	r28, 0x3d	; 61
     ff4:	de b7       	in	r29, 0x3e	; 62
     ff6:	9a 83       	std	Y+2, r25	; 0x02
     ff8:	89 83       	std	Y+1, r24	; 0x01
     ffa:	7c 83       	std	Y+4, r23	; 0x04
     ffc:	6b 83       	std	Y+3, r22	; 0x03
     ffe:	5e 83       	std	Y+6, r21	; 0x06
    1000:	4d 83       	std	Y+5, r20	; 0x05
    1002:	8b 81       	ldd	r24, Y+3	; 0x03
    1004:	9c 81       	ldd	r25, Y+4	; 0x04
    1006:	09 2e       	mov	r0, r25
    1008:	00 0c       	add	r0, r0
    100a:	aa 0b       	sbc	r26, r26
    100c:	bb 0b       	sbc	r27, r27
    100e:	2d 81       	ldd	r18, Y+5	; 0x05
    1010:	3e 81       	ldd	r19, Y+6	; 0x06
    1012:	e9 81       	ldd	r30, Y+1	; 0x01
    1014:	fa 81       	ldd	r31, Y+2	; 0x02
    1016:	ac 01       	movw	r20, r24
    1018:	bd 01       	movw	r22, r26
    101a:	cf 01       	movw	r24, r30
    101c:	0e 94 19 08 	call	0x1032	; 0x1032 <_ZN5Print5printEli>
    1020:	26 96       	adiw	r28, 0x06	; 6
    1022:	0f b6       	in	r0, 0x3f	; 63
    1024:	f8 94       	cli
    1026:	de bf       	out	0x3e, r29	; 62
    1028:	0f be       	out	0x3f, r0	; 63
    102a:	cd bf       	out	0x3d, r28	; 61
    102c:	df 91       	pop	r29
    102e:	cf 91       	pop	r28
    1030:	08 95       	ret

00001032 <_ZN5Print5printEli>:
    1032:	cf 93       	push	r28
    1034:	df 93       	push	r29
    1036:	cd b7       	in	r28, 0x3d	; 61
    1038:	de b7       	in	r29, 0x3e	; 62
    103a:	2a 97       	sbiw	r28, 0x0a	; 10
    103c:	0f b6       	in	r0, 0x3f	; 63
    103e:	f8 94       	cli
    1040:	de bf       	out	0x3e, r29	; 62
    1042:	0f be       	out	0x3f, r0	; 63
    1044:	cd bf       	out	0x3d, r28	; 61
    1046:	9c 83       	std	Y+4, r25	; 0x04
    1048:	8b 83       	std	Y+3, r24	; 0x03
    104a:	4d 83       	std	Y+5, r20	; 0x05
    104c:	5e 83       	std	Y+6, r21	; 0x06
    104e:	6f 83       	std	Y+7, r22	; 0x07
    1050:	78 87       	std	Y+8, r23	; 0x08
    1052:	3a 87       	std	Y+10, r19	; 0x0a
    1054:	29 87       	std	Y+9, r18	; 0x09
    1056:	89 85       	ldd	r24, Y+9	; 0x09
    1058:	9a 85       	ldd	r25, Y+10	; 0x0a
    105a:	89 2b       	or	r24, r25
    105c:	79 f4       	brne	.+30     	; 0x107c <_ZN5Print5printEli+0x4a>
    105e:	8b 81       	ldd	r24, Y+3	; 0x03
    1060:	9c 81       	ldd	r25, Y+4	; 0x04
    1062:	fc 01       	movw	r30, r24
    1064:	80 81       	ld	r24, Z
    1066:	91 81       	ldd	r25, Z+1	; 0x01
    1068:	fc 01       	movw	r30, r24
    106a:	20 81       	ld	r18, Z
    106c:	31 81       	ldd	r19, Z+1	; 0x01
    106e:	4d 81       	ldd	r20, Y+5	; 0x05
    1070:	8b 81       	ldd	r24, Y+3	; 0x03
    1072:	9c 81       	ldd	r25, Y+4	; 0x04
    1074:	64 2f       	mov	r22, r20
    1076:	f9 01       	movw	r30, r18
    1078:	09 95       	icall
    107a:	4b c0       	rjmp	.+150    	; 0x1112 <_ZN5Print5printEli+0xe0>
    107c:	89 85       	ldd	r24, Y+9	; 0x09
    107e:	9a 85       	ldd	r25, Y+10	; 0x0a
    1080:	0a 97       	sbiw	r24, 0x0a	; 10
    1082:	d9 f5       	brne	.+118    	; 0x10fa <_ZN5Print5printEli+0xc8>
    1084:	8d 81       	ldd	r24, Y+5	; 0x05
    1086:	9e 81       	ldd	r25, Y+6	; 0x06
    1088:	af 81       	ldd	r26, Y+7	; 0x07
    108a:	b8 85       	ldd	r27, Y+8	; 0x08
    108c:	bb 23       	and	r27, r27
    108e:	44 f5       	brge	.+80     	; 0x10e0 <_ZN5Print5printEli+0xae>
    1090:	8b 81       	ldd	r24, Y+3	; 0x03
    1092:	9c 81       	ldd	r25, Y+4	; 0x04
    1094:	6d e2       	ldi	r22, 0x2D	; 45
    1096:	0e 94 d8 07 	call	0xfb0	; 0xfb0 <_ZN5Print5printEc>
    109a:	9a 83       	std	Y+2, r25	; 0x02
    109c:	89 83       	std	Y+1, r24	; 0x01
    109e:	8d 81       	ldd	r24, Y+5	; 0x05
    10a0:	9e 81       	ldd	r25, Y+6	; 0x06
    10a2:	af 81       	ldd	r26, Y+7	; 0x07
    10a4:	b8 85       	ldd	r27, Y+8	; 0x08
    10a6:	b0 95       	com	r27
    10a8:	a0 95       	com	r26
    10aa:	90 95       	com	r25
    10ac:	81 95       	neg	r24
    10ae:	9f 4f       	sbci	r25, 0xFF	; 255
    10b0:	af 4f       	sbci	r26, 0xFF	; 255
    10b2:	bf 4f       	sbci	r27, 0xFF	; 255
    10b4:	8d 83       	std	Y+5, r24	; 0x05
    10b6:	9e 83       	std	Y+6, r25	; 0x06
    10b8:	af 83       	std	Y+7, r26	; 0x07
    10ba:	b8 87       	std	Y+8, r27	; 0x08
    10bc:	8d 81       	ldd	r24, Y+5	; 0x05
    10be:	9e 81       	ldd	r25, Y+6	; 0x06
    10c0:	af 81       	ldd	r26, Y+7	; 0x07
    10c2:	b8 85       	ldd	r27, Y+8	; 0x08
    10c4:	eb 81       	ldd	r30, Y+3	; 0x03
    10c6:	fc 81       	ldd	r31, Y+4	; 0x04
    10c8:	2a e0       	ldi	r18, 0x0A	; 10
    10ca:	ac 01       	movw	r20, r24
    10cc:	bd 01       	movw	r22, r26
    10ce:	cf 01       	movw	r24, r30
    10d0:	0e 94 2f 09 	call	0x125e	; 0x125e <_ZN5Print11printNumberEmh>
    10d4:	9c 01       	movw	r18, r24
    10d6:	89 81       	ldd	r24, Y+1	; 0x01
    10d8:	9a 81       	ldd	r25, Y+2	; 0x02
    10da:	82 0f       	add	r24, r18
    10dc:	93 1f       	adc	r25, r19
    10de:	19 c0       	rjmp	.+50     	; 0x1112 <_ZN5Print5printEli+0xe0>
    10e0:	8d 81       	ldd	r24, Y+5	; 0x05
    10e2:	9e 81       	ldd	r25, Y+6	; 0x06
    10e4:	af 81       	ldd	r26, Y+7	; 0x07
    10e6:	b8 85       	ldd	r27, Y+8	; 0x08
    10e8:	eb 81       	ldd	r30, Y+3	; 0x03
    10ea:	fc 81       	ldd	r31, Y+4	; 0x04
    10ec:	2a e0       	ldi	r18, 0x0A	; 10
    10ee:	ac 01       	movw	r20, r24
    10f0:	bd 01       	movw	r22, r26
    10f2:	cf 01       	movw	r24, r30
    10f4:	0e 94 2f 09 	call	0x125e	; 0x125e <_ZN5Print11printNumberEmh>
    10f8:	0c c0       	rjmp	.+24     	; 0x1112 <_ZN5Print5printEli+0xe0>
    10fa:	29 85       	ldd	r18, Y+9	; 0x09
    10fc:	8d 81       	ldd	r24, Y+5	; 0x05
    10fe:	9e 81       	ldd	r25, Y+6	; 0x06
    1100:	af 81       	ldd	r26, Y+7	; 0x07
    1102:	b8 85       	ldd	r27, Y+8	; 0x08
    1104:	eb 81       	ldd	r30, Y+3	; 0x03
    1106:	fc 81       	ldd	r31, Y+4	; 0x04
    1108:	ac 01       	movw	r20, r24
    110a:	bd 01       	movw	r22, r26
    110c:	cf 01       	movw	r24, r30
    110e:	0e 94 2f 09 	call	0x125e	; 0x125e <_ZN5Print11printNumberEmh>
    1112:	2a 96       	adiw	r28, 0x0a	; 10
    1114:	0f b6       	in	r0, 0x3f	; 63
    1116:	f8 94       	cli
    1118:	de bf       	out	0x3e, r29	; 62
    111a:	0f be       	out	0x3f, r0	; 63
    111c:	cd bf       	out	0x3d, r28	; 61
    111e:	df 91       	pop	r29
    1120:	cf 91       	pop	r28
    1122:	08 95       	ret

00001124 <_ZN5Print5printEmi>:
    1124:	cf 93       	push	r28
    1126:	df 93       	push	r29
    1128:	cd b7       	in	r28, 0x3d	; 61
    112a:	de b7       	in	r29, 0x3e	; 62
    112c:	28 97       	sbiw	r28, 0x08	; 8
    112e:	0f b6       	in	r0, 0x3f	; 63
    1130:	f8 94       	cli
    1132:	de bf       	out	0x3e, r29	; 62
    1134:	0f be       	out	0x3f, r0	; 63
    1136:	cd bf       	out	0x3d, r28	; 61
    1138:	9a 83       	std	Y+2, r25	; 0x02
    113a:	89 83       	std	Y+1, r24	; 0x01
    113c:	4b 83       	std	Y+3, r20	; 0x03
    113e:	5c 83       	std	Y+4, r21	; 0x04
    1140:	6d 83       	std	Y+5, r22	; 0x05
    1142:	7e 83       	std	Y+6, r23	; 0x06
    1144:	38 87       	std	Y+8, r19	; 0x08
    1146:	2f 83       	std	Y+7, r18	; 0x07
    1148:	8f 81       	ldd	r24, Y+7	; 0x07
    114a:	98 85       	ldd	r25, Y+8	; 0x08
    114c:	89 2b       	or	r24, r25
    114e:	79 f4       	brne	.+30     	; 0x116e <_ZN5Print5printEmi+0x4a>
    1150:	89 81       	ldd	r24, Y+1	; 0x01
    1152:	9a 81       	ldd	r25, Y+2	; 0x02
    1154:	fc 01       	movw	r30, r24
    1156:	80 81       	ld	r24, Z
    1158:	91 81       	ldd	r25, Z+1	; 0x01
    115a:	fc 01       	movw	r30, r24
    115c:	20 81       	ld	r18, Z
    115e:	31 81       	ldd	r19, Z+1	; 0x01
    1160:	4b 81       	ldd	r20, Y+3	; 0x03
    1162:	89 81       	ldd	r24, Y+1	; 0x01
    1164:	9a 81       	ldd	r25, Y+2	; 0x02
    1166:	64 2f       	mov	r22, r20
    1168:	f9 01       	movw	r30, r18
    116a:	09 95       	icall
    116c:	0c c0       	rjmp	.+24     	; 0x1186 <_ZN5Print5printEmi+0x62>
    116e:	2f 81       	ldd	r18, Y+7	; 0x07
    1170:	8b 81       	ldd	r24, Y+3	; 0x03
    1172:	9c 81       	ldd	r25, Y+4	; 0x04
    1174:	ad 81       	ldd	r26, Y+5	; 0x05
    1176:	be 81       	ldd	r27, Y+6	; 0x06
    1178:	e9 81       	ldd	r30, Y+1	; 0x01
    117a:	fa 81       	ldd	r31, Y+2	; 0x02
    117c:	ac 01       	movw	r20, r24
    117e:	bd 01       	movw	r22, r26
    1180:	cf 01       	movw	r24, r30
    1182:	0e 94 2f 09 	call	0x125e	; 0x125e <_ZN5Print11printNumberEmh>
    1186:	28 96       	adiw	r28, 0x08	; 8
    1188:	0f b6       	in	r0, 0x3f	; 63
    118a:	f8 94       	cli
    118c:	de bf       	out	0x3e, r29	; 62
    118e:	0f be       	out	0x3f, r0	; 63
    1190:	cd bf       	out	0x3d, r28	; 61
    1192:	df 91       	pop	r29
    1194:	cf 91       	pop	r28
    1196:	08 95       	ret

00001198 <_ZN5Print5printEdi>:
    1198:	cf 93       	push	r28
    119a:	df 93       	push	r29
    119c:	cd b7       	in	r28, 0x3d	; 61
    119e:	de b7       	in	r29, 0x3e	; 62
    11a0:	28 97       	sbiw	r28, 0x08	; 8
    11a2:	0f b6       	in	r0, 0x3f	; 63
    11a4:	f8 94       	cli
    11a6:	de bf       	out	0x3e, r29	; 62
    11a8:	0f be       	out	0x3f, r0	; 63
    11aa:	cd bf       	out	0x3d, r28	; 61
    11ac:	9a 83       	std	Y+2, r25	; 0x02
    11ae:	89 83       	std	Y+1, r24	; 0x01
    11b0:	4b 83       	std	Y+3, r20	; 0x03
    11b2:	5c 83       	std	Y+4, r21	; 0x04
    11b4:	6d 83       	std	Y+5, r22	; 0x05
    11b6:	7e 83       	std	Y+6, r23	; 0x06
    11b8:	38 87       	std	Y+8, r19	; 0x08
    11ba:	2f 83       	std	Y+7, r18	; 0x07
    11bc:	2f 81       	ldd	r18, Y+7	; 0x07
    11be:	8b 81       	ldd	r24, Y+3	; 0x03
    11c0:	9c 81       	ldd	r25, Y+4	; 0x04
    11c2:	ad 81       	ldd	r26, Y+5	; 0x05
    11c4:	be 81       	ldd	r27, Y+6	; 0x06
    11c6:	e9 81       	ldd	r30, Y+1	; 0x01
    11c8:	fa 81       	ldd	r31, Y+2	; 0x02
    11ca:	ac 01       	movw	r20, r24
    11cc:	bd 01       	movw	r22, r26
    11ce:	cf 01       	movw	r24, r30
    11d0:	0e 94 a0 09 	call	0x1340	; 0x1340 <_ZN5Print10printFloatEdh>
    11d4:	28 96       	adiw	r28, 0x08	; 8
    11d6:	0f b6       	in	r0, 0x3f	; 63
    11d8:	f8 94       	cli
    11da:	de bf       	out	0x3e, r29	; 62
    11dc:	0f be       	out	0x3f, r0	; 63
    11de:	cd bf       	out	0x3d, r28	; 61
    11e0:	df 91       	pop	r29
    11e2:	cf 91       	pop	r28
    11e4:	08 95       	ret

000011e6 <_ZN5Print7printlnEv>:
    11e6:	cf 93       	push	r28
    11e8:	df 93       	push	r29
    11ea:	00 d0       	rcall	.+0      	; 0x11ec <_ZN5Print7printlnEv+0x6>
    11ec:	cd b7       	in	r28, 0x3d	; 61
    11ee:	de b7       	in	r29, 0x3e	; 62
    11f0:	9a 83       	std	Y+2, r25	; 0x02
    11f2:	89 83       	std	Y+1, r24	; 0x01
    11f4:	89 81       	ldd	r24, Y+1	; 0x01
    11f6:	9a 81       	ldd	r25, Y+2	; 0x02
    11f8:	61 e0       	ldi	r22, 0x01	; 1
    11fa:	71 e0       	ldi	r23, 0x01	; 1
    11fc:	0e 94 41 07 	call	0xe82	; 0xe82 <_ZN5Print5writeEPKc>
    1200:	0f 90       	pop	r0
    1202:	0f 90       	pop	r0
    1204:	df 91       	pop	r29
    1206:	cf 91       	pop	r28
    1208:	08 95       	ret

0000120a <_ZN5Print7printlnEPKc>:
    120a:	cf 93       	push	r28
    120c:	df 93       	push	r29
    120e:	00 d0       	rcall	.+0      	; 0x1210 <_ZN5Print7printlnEPKc+0x6>
    1210:	00 d0       	rcall	.+0      	; 0x1212 <_ZN5Print7printlnEPKc+0x8>
    1212:	00 d0       	rcall	.+0      	; 0x1214 <_ZN5Print7printlnEPKc+0xa>
    1214:	cd b7       	in	r28, 0x3d	; 61
    1216:	de b7       	in	r29, 0x3e	; 62
    1218:	9c 83       	std	Y+4, r25	; 0x04
    121a:	8b 83       	std	Y+3, r24	; 0x03
    121c:	7e 83       	std	Y+6, r23	; 0x06
    121e:	6d 83       	std	Y+5, r22	; 0x05
    1220:	2d 81       	ldd	r18, Y+5	; 0x05
    1222:	3e 81       	ldd	r19, Y+6	; 0x06
    1224:	8b 81       	ldd	r24, Y+3	; 0x03
    1226:	9c 81       	ldd	r25, Y+4	; 0x04
    1228:	b9 01       	movw	r22, r18
    122a:	0e 94 c0 07 	call	0xf80	; 0xf80 <_ZN5Print5printEPKc>
    122e:	9a 83       	std	Y+2, r25	; 0x02
    1230:	89 83       	std	Y+1, r24	; 0x01
    1232:	8b 81       	ldd	r24, Y+3	; 0x03
    1234:	9c 81       	ldd	r25, Y+4	; 0x04
    1236:	0e 94 f3 08 	call	0x11e6	; 0x11e6 <_ZN5Print7printlnEv>
    123a:	9c 01       	movw	r18, r24
    123c:	89 81       	ldd	r24, Y+1	; 0x01
    123e:	9a 81       	ldd	r25, Y+2	; 0x02
    1240:	82 0f       	add	r24, r18
    1242:	93 1f       	adc	r25, r19
    1244:	9a 83       	std	Y+2, r25	; 0x02
    1246:	89 83       	std	Y+1, r24	; 0x01
    1248:	89 81       	ldd	r24, Y+1	; 0x01
    124a:	9a 81       	ldd	r25, Y+2	; 0x02
    124c:	26 96       	adiw	r28, 0x06	; 6
    124e:	0f b6       	in	r0, 0x3f	; 63
    1250:	f8 94       	cli
    1252:	de bf       	out	0x3e, r29	; 62
    1254:	0f be       	out	0x3f, r0	; 63
    1256:	cd bf       	out	0x3d, r28	; 61
    1258:	df 91       	pop	r29
    125a:	cf 91       	pop	r28
    125c:	08 95       	ret

0000125e <_ZN5Print11printNumberEmh>:
    125e:	cf 93       	push	r28
    1260:	df 93       	push	r29
    1262:	cd b7       	in	r28, 0x3d	; 61
    1264:	de b7       	in	r29, 0x3e	; 62
    1266:	e3 97       	sbiw	r28, 0x33	; 51
    1268:	0f b6       	in	r0, 0x3f	; 63
    126a:	f8 94       	cli
    126c:	de bf       	out	0x3e, r29	; 62
    126e:	0f be       	out	0x3f, r0	; 63
    1270:	cd bf       	out	0x3d, r28	; 61
    1272:	9e a3       	std	Y+38, r25	; 0x26
    1274:	8d a3       	std	Y+37, r24	; 0x25
    1276:	4f a3       	std	Y+39, r20	; 0x27
    1278:	58 a7       	std	Y+40, r21	; 0x28
    127a:	69 a7       	std	Y+41, r22	; 0x29
    127c:	7a a7       	std	Y+42, r23	; 0x2a
    127e:	2b a7       	std	Y+43, r18	; 0x2b
    1280:	80 e2       	ldi	r24, 0x20	; 32
    1282:	90 e0       	ldi	r25, 0x00	; 0
    1284:	9e 01       	movw	r18, r28
    1286:	2c 5f       	subi	r18, 0xFC	; 252
    1288:	3f 4f       	sbci	r19, 0xFF	; 255
    128a:	82 0f       	add	r24, r18
    128c:	93 1f       	adc	r25, r19
    128e:	9a 83       	std	Y+2, r25	; 0x02
    1290:	89 83       	std	Y+1, r24	; 0x01
    1292:	89 81       	ldd	r24, Y+1	; 0x01
    1294:	9a 81       	ldd	r25, Y+2	; 0x02
    1296:	fc 01       	movw	r30, r24
    1298:	10 82       	st	Z, r1
    129a:	8b a5       	ldd	r24, Y+43	; 0x2b
    129c:	82 30       	cpi	r24, 0x02	; 2
    129e:	10 f4       	brcc	.+4      	; 0x12a4 <_ZN5Print11printNumberEmh+0x46>
    12a0:	8a e0       	ldi	r24, 0x0A	; 10
    12a2:	8b a7       	std	Y+43, r24	; 0x2b
    12a4:	8b a5       	ldd	r24, Y+43	; 0x2b
    12a6:	28 2f       	mov	r18, r24
    12a8:	30 e0       	ldi	r19, 0x00	; 0
    12aa:	40 e0       	ldi	r20, 0x00	; 0
    12ac:	50 e0       	ldi	r21, 0x00	; 0
    12ae:	8f a1       	ldd	r24, Y+39	; 0x27
    12b0:	98 a5       	ldd	r25, Y+40	; 0x28
    12b2:	a9 a5       	ldd	r26, Y+41	; 0x29
    12b4:	ba a5       	ldd	r27, Y+42	; 0x2a
    12b6:	bc 01       	movw	r22, r24
    12b8:	cd 01       	movw	r24, r26
    12ba:	0e 94 51 14 	call	0x28a2	; 0x28a2 <__udivmodsi4>
    12be:	dc 01       	movw	r26, r24
    12c0:	cb 01       	movw	r24, r22
    12c2:	8b 83       	std	Y+3, r24	; 0x03
    12c4:	8b a5       	ldd	r24, Y+43	; 0x2b
    12c6:	28 2f       	mov	r18, r24
    12c8:	30 e0       	ldi	r19, 0x00	; 0
    12ca:	40 e0       	ldi	r20, 0x00	; 0
    12cc:	50 e0       	ldi	r21, 0x00	; 0
    12ce:	8f a1       	ldd	r24, Y+39	; 0x27
    12d0:	98 a5       	ldd	r25, Y+40	; 0x28
    12d2:	a9 a5       	ldd	r26, Y+41	; 0x29
    12d4:	ba a5       	ldd	r27, Y+42	; 0x2a
    12d6:	bc 01       	movw	r22, r24
    12d8:	cd 01       	movw	r24, r26
    12da:	0e 94 51 14 	call	0x28a2	; 0x28a2 <__udivmodsi4>
    12de:	da 01       	movw	r26, r20
    12e0:	c9 01       	movw	r24, r18
    12e2:	8f a3       	std	Y+39, r24	; 0x27
    12e4:	98 a7       	std	Y+40, r25	; 0x28
    12e6:	a9 a7       	std	Y+41, r26	; 0x29
    12e8:	ba a7       	std	Y+42, r27	; 0x2a
    12ea:	89 81       	ldd	r24, Y+1	; 0x01
    12ec:	9a 81       	ldd	r25, Y+2	; 0x02
    12ee:	01 97       	sbiw	r24, 0x01	; 1
    12f0:	9a 83       	std	Y+2, r25	; 0x02
    12f2:	89 83       	std	Y+1, r24	; 0x01
    12f4:	8b 81       	ldd	r24, Y+3	; 0x03
    12f6:	8a 30       	cpi	r24, 0x0A	; 10
    12f8:	20 f4       	brcc	.+8      	; 0x1302 <_ZN5Print11printNumberEmh+0xa4>
    12fa:	8b 81       	ldd	r24, Y+3	; 0x03
    12fc:	20 e3       	ldi	r18, 0x30	; 48
    12fe:	28 0f       	add	r18, r24
    1300:	03 c0       	rjmp	.+6      	; 0x1308 <_ZN5Print11printNumberEmh+0xaa>
    1302:	8b 81       	ldd	r24, Y+3	; 0x03
    1304:	27 e3       	ldi	r18, 0x37	; 55
    1306:	28 0f       	add	r18, r24
    1308:	89 81       	ldd	r24, Y+1	; 0x01
    130a:	9a 81       	ldd	r25, Y+2	; 0x02
    130c:	fc 01       	movw	r30, r24
    130e:	20 83       	st	Z, r18
    1310:	8f a1       	ldd	r24, Y+39	; 0x27
    1312:	98 a5       	ldd	r25, Y+40	; 0x28
    1314:	a9 a5       	ldd	r26, Y+41	; 0x29
    1316:	ba a5       	ldd	r27, Y+42	; 0x2a
    1318:	89 2b       	or	r24, r25
    131a:	8a 2b       	or	r24, r26
    131c:	8b 2b       	or	r24, r27
    131e:	11 f6       	brne	.-124    	; 0x12a4 <_ZN5Print11printNumberEmh+0x46>
    1320:	29 81       	ldd	r18, Y+1	; 0x01
    1322:	3a 81       	ldd	r19, Y+2	; 0x02
    1324:	8d a1       	ldd	r24, Y+37	; 0x25
    1326:	9e a1       	ldd	r25, Y+38	; 0x26
    1328:	b9 01       	movw	r22, r18
    132a:	0e 94 41 07 	call	0xe82	; 0xe82 <_ZN5Print5writeEPKc>
    132e:	e3 96       	adiw	r28, 0x33	; 51
    1330:	0f b6       	in	r0, 0x3f	; 63
    1332:	f8 94       	cli
    1334:	de bf       	out	0x3e, r29	; 62
    1336:	0f be       	out	0x3f, r0	; 63
    1338:	cd bf       	out	0x3d, r28	; 61
    133a:	df 91       	pop	r29
    133c:	cf 91       	pop	r28
    133e:	08 95       	ret

00001340 <_ZN5Print10printFloatEdh>:
    1340:	cf 92       	push	r12
    1342:	df 92       	push	r13
    1344:	ef 92       	push	r14
    1346:	ff 92       	push	r15
    1348:	1f 93       	push	r17
    134a:	cf 93       	push	r28
    134c:	df 93       	push	r29
    134e:	cd b7       	in	r28, 0x3d	; 61
    1350:	de b7       	in	r29, 0x3e	; 62
    1352:	68 97       	sbiw	r28, 0x18	; 24
    1354:	0f b6       	in	r0, 0x3f	; 63
    1356:	f8 94       	cli
    1358:	de bf       	out	0x3e, r29	; 62
    135a:	0f be       	out	0x3f, r0	; 63
    135c:	cd bf       	out	0x3d, r28	; 61
    135e:	9b 8b       	std	Y+19, r25	; 0x13
    1360:	8a 8b       	std	Y+18, r24	; 0x12
    1362:	4c 8b       	std	Y+20, r20	; 0x14
    1364:	5d 8b       	std	Y+21, r21	; 0x15
    1366:	6e 8b       	std	Y+22, r22	; 0x16
    1368:	7f 8b       	std	Y+23, r23	; 0x17
    136a:	28 8f       	std	Y+24, r18	; 0x18
    136c:	1a 82       	std	Y+2, r1	; 0x02
    136e:	19 82       	std	Y+1, r1	; 0x01
    1370:	2c 89       	ldd	r18, Y+20	; 0x14
    1372:	3d 89       	ldd	r19, Y+21	; 0x15
    1374:	4e 89       	ldd	r20, Y+22	; 0x16
    1376:	5f 89       	ldd	r21, Y+23	; 0x17
    1378:	6c 89       	ldd	r22, Y+20	; 0x14
    137a:	7d 89       	ldd	r23, Y+21	; 0x15
    137c:	8e 89       	ldd	r24, Y+22	; 0x16
    137e:	9f 89       	ldd	r25, Y+23	; 0x17
    1380:	0e 94 f0 16 	call	0x2de0	; 0x2de0 <__unordsf2>
    1384:	88 23       	and	r24, r24
    1386:	39 f0       	breq	.+14     	; 0x1396 <_ZN5Print10printFloatEdh+0x56>
    1388:	8a 89       	ldd	r24, Y+18	; 0x12
    138a:	9b 89       	ldd	r25, Y+19	; 0x13
    138c:	64 e0       	ldi	r22, 0x04	; 4
    138e:	71 e0       	ldi	r23, 0x01	; 1
    1390:	0e 94 c0 07 	call	0xf80	; 0xf80 <_ZN5Print5printEPKc>
    1394:	38 c1       	rjmp	.+624    	; 0x1606 <_ZN5Print10printFloatEdh+0x2c6>
    1396:	8c 89       	ldd	r24, Y+20	; 0x14
    1398:	9d 89       	ldd	r25, Y+21	; 0x15
    139a:	ae 89       	ldd	r26, Y+22	; 0x16
    139c:	bf 89       	ldd	r27, Y+23	; 0x17
    139e:	6c 01       	movw	r12, r24
    13a0:	7d 01       	movw	r14, r26
    13a2:	e8 94       	clt
    13a4:	f7 f8       	bld	r15, 7
    13a6:	11 e0       	ldi	r17, 0x01	; 1
    13a8:	2f ef       	ldi	r18, 0xFF	; 255
    13aa:	3f ef       	ldi	r19, 0xFF	; 255
    13ac:	4f e7       	ldi	r20, 0x7F	; 127
    13ae:	5f e7       	ldi	r21, 0x7F	; 127
    13b0:	c7 01       	movw	r24, r14
    13b2:	b6 01       	movw	r22, r12
    13b4:	0e 94 f0 16 	call	0x2de0	; 0x2de0 <__unordsf2>
    13b8:	88 23       	and	r24, r24
    13ba:	59 f4       	brne	.+22     	; 0x13d2 <_ZN5Print10printFloatEdh+0x92>
    13bc:	2f ef       	ldi	r18, 0xFF	; 255
    13be:	3f ef       	ldi	r19, 0xFF	; 255
    13c0:	4f e7       	ldi	r20, 0x7F	; 127
    13c2:	5f e7       	ldi	r21, 0x7F	; 127
    13c4:	c7 01       	movw	r24, r14
    13c6:	b6 01       	movw	r22, r12
    13c8:	0e 94 1f 15 	call	0x2a3e	; 0x2a3e <__cmpsf2>
    13cc:	18 16       	cp	r1, r24
    13ce:	0c f4       	brge	.+2      	; 0x13d2 <_ZN5Print10printFloatEdh+0x92>
    13d0:	10 e0       	ldi	r17, 0x00	; 0
    13d2:	81 e0       	ldi	r24, 0x01	; 1
    13d4:	81 27       	eor	r24, r17
    13d6:	88 23       	and	r24, r24
    13d8:	39 f0       	breq	.+14     	; 0x13e8 <_ZN5Print10printFloatEdh+0xa8>
    13da:	8a 89       	ldd	r24, Y+18	; 0x12
    13dc:	9b 89       	ldd	r25, Y+19	; 0x13
    13de:	68 e0       	ldi	r22, 0x08	; 8
    13e0:	71 e0       	ldi	r23, 0x01	; 1
    13e2:	0e 94 c0 07 	call	0xf80	; 0xf80 <_ZN5Print5printEPKc>
    13e6:	0f c1       	rjmp	.+542    	; 0x1606 <_ZN5Print10printFloatEdh+0x2c6>
    13e8:	2f ef       	ldi	r18, 0xFF	; 255
    13ea:	3f ef       	ldi	r19, 0xFF	; 255
    13ec:	4f e7       	ldi	r20, 0x7F	; 127
    13ee:	5f e4       	ldi	r21, 0x4F	; 79
    13f0:	6c 89       	ldd	r22, Y+20	; 0x14
    13f2:	7d 89       	ldd	r23, Y+21	; 0x15
    13f4:	8e 89       	ldd	r24, Y+22	; 0x16
    13f6:	9f 89       	ldd	r25, Y+23	; 0x17
    13f8:	0e 94 7e 16 	call	0x2cfc	; 0x2cfc <__gesf2>
    13fc:	18 16       	cp	r1, r24
    13fe:	3c f4       	brge	.+14     	; 0x140e <_ZN5Print10printFloatEdh+0xce>
    1400:	8a 89       	ldd	r24, Y+18	; 0x12
    1402:	9b 89       	ldd	r25, Y+19	; 0x13
    1404:	6c e0       	ldi	r22, 0x0C	; 12
    1406:	71 e0       	ldi	r23, 0x01	; 1
    1408:	0e 94 c0 07 	call	0xf80	; 0xf80 <_ZN5Print5printEPKc>
    140c:	fc c0       	rjmp	.+504    	; 0x1606 <_ZN5Print10printFloatEdh+0x2c6>
    140e:	2f ef       	ldi	r18, 0xFF	; 255
    1410:	3f ef       	ldi	r19, 0xFF	; 255
    1412:	4f e7       	ldi	r20, 0x7F	; 127
    1414:	5f ec       	ldi	r21, 0xCF	; 207
    1416:	6c 89       	ldd	r22, Y+20	; 0x14
    1418:	7d 89       	ldd	r23, Y+21	; 0x15
    141a:	8e 89       	ldd	r24, Y+22	; 0x16
    141c:	9f 89       	ldd	r25, Y+23	; 0x17
    141e:	0e 94 1f 15 	call	0x2a3e	; 0x2a3e <__cmpsf2>
    1422:	88 23       	and	r24, r24
    1424:	3c f4       	brge	.+14     	; 0x1434 <_ZN5Print10printFloatEdh+0xf4>
    1426:	8a 89       	ldd	r24, Y+18	; 0x12
    1428:	9b 89       	ldd	r25, Y+19	; 0x13
    142a:	6c e0       	ldi	r22, 0x0C	; 12
    142c:	71 e0       	ldi	r23, 0x01	; 1
    142e:	0e 94 c0 07 	call	0xf80	; 0xf80 <_ZN5Print5printEPKc>
    1432:	e9 c0       	rjmp	.+466    	; 0x1606 <_ZN5Print10printFloatEdh+0x2c6>
    1434:	20 e0       	ldi	r18, 0x00	; 0
    1436:	30 e0       	ldi	r19, 0x00	; 0
    1438:	a9 01       	movw	r20, r18
    143a:	6c 89       	ldd	r22, Y+20	; 0x14
    143c:	7d 89       	ldd	r23, Y+21	; 0x15
    143e:	8e 89       	ldd	r24, Y+22	; 0x16
    1440:	9f 89       	ldd	r25, Y+23	; 0x17
    1442:	0e 94 1f 15 	call	0x2a3e	; 0x2a3e <__cmpsf2>
    1446:	88 23       	and	r24, r24
    1448:	ac f4       	brge	.+42     	; 0x1474 <_ZN5Print10printFloatEdh+0x134>
    144a:	8a 89       	ldd	r24, Y+18	; 0x12
    144c:	9b 89       	ldd	r25, Y+19	; 0x13
    144e:	6d e2       	ldi	r22, 0x2D	; 45
    1450:	0e 94 d8 07 	call	0xfb0	; 0xfb0 <_ZN5Print5printEc>
    1454:	9c 01       	movw	r18, r24
    1456:	89 81       	ldd	r24, Y+1	; 0x01
    1458:	9a 81       	ldd	r25, Y+2	; 0x02
    145a:	82 0f       	add	r24, r18
    145c:	93 1f       	adc	r25, r19
    145e:	9a 83       	std	Y+2, r25	; 0x02
    1460:	89 83       	std	Y+1, r24	; 0x01
    1462:	8c 89       	ldd	r24, Y+20	; 0x14
    1464:	9d 89       	ldd	r25, Y+21	; 0x15
    1466:	ae 89       	ldd	r26, Y+22	; 0x16
    1468:	bf 89       	ldd	r27, Y+23	; 0x17
    146a:	b0 58       	subi	r27, 0x80	; 128
    146c:	8c 8b       	std	Y+20, r24	; 0x14
    146e:	9d 8b       	std	Y+21, r25	; 0x15
    1470:	ae 8b       	std	Y+22, r26	; 0x16
    1472:	bf 8b       	std	Y+23, r27	; 0x17
    1474:	80 e0       	ldi	r24, 0x00	; 0
    1476:	90 e0       	ldi	r25, 0x00	; 0
    1478:	a0 e0       	ldi	r26, 0x00	; 0
    147a:	bf e3       	ldi	r27, 0x3F	; 63
    147c:	8b 83       	std	Y+3, r24	; 0x03
    147e:	9c 83       	std	Y+4, r25	; 0x04
    1480:	ad 83       	std	Y+5, r26	; 0x05
    1482:	be 83       	std	Y+6, r27	; 0x06
    1484:	1f 82       	std	Y+7, r1	; 0x07
    1486:	13 c0       	rjmp	.+38     	; 0x14ae <_ZN5Print10printFloatEdh+0x16e>
    1488:	20 e0       	ldi	r18, 0x00	; 0
    148a:	30 e0       	ldi	r19, 0x00	; 0
    148c:	40 e2       	ldi	r20, 0x20	; 32
    148e:	51 e4       	ldi	r21, 0x41	; 65
    1490:	6b 81       	ldd	r22, Y+3	; 0x03
    1492:	7c 81       	ldd	r23, Y+4	; 0x04
    1494:	8d 81       	ldd	r24, Y+5	; 0x05
    1496:	9e 81       	ldd	r25, Y+6	; 0x06
    1498:	0e 94 24 15 	call	0x2a48	; 0x2a48 <__divsf3>
    149c:	dc 01       	movw	r26, r24
    149e:	cb 01       	movw	r24, r22
    14a0:	8b 83       	std	Y+3, r24	; 0x03
    14a2:	9c 83       	std	Y+4, r25	; 0x04
    14a4:	ad 83       	std	Y+5, r26	; 0x05
    14a6:	be 83       	std	Y+6, r27	; 0x06
    14a8:	8f 81       	ldd	r24, Y+7	; 0x07
    14aa:	8f 5f       	subi	r24, 0xFF	; 255
    14ac:	8f 83       	std	Y+7, r24	; 0x07
    14ae:	9f 81       	ldd	r25, Y+7	; 0x07
    14b0:	88 8d       	ldd	r24, Y+24	; 0x18
    14b2:	98 17       	cp	r25, r24
    14b4:	48 f3       	brcs	.-46     	; 0x1488 <_ZN5Print10printFloatEdh+0x148>
    14b6:	2b 81       	ldd	r18, Y+3	; 0x03
    14b8:	3c 81       	ldd	r19, Y+4	; 0x04
    14ba:	4d 81       	ldd	r20, Y+5	; 0x05
    14bc:	5e 81       	ldd	r21, Y+6	; 0x06
    14be:	6c 89       	ldd	r22, Y+20	; 0x14
    14c0:	7d 89       	ldd	r23, Y+21	; 0x15
    14c2:	8e 89       	ldd	r24, Y+22	; 0x16
    14c4:	9f 89       	ldd	r25, Y+23	; 0x17
    14c6:	0e 94 b3 14 	call	0x2966	; 0x2966 <__addsf3>
    14ca:	dc 01       	movw	r26, r24
    14cc:	cb 01       	movw	r24, r22
    14ce:	8c 8b       	std	Y+20, r24	; 0x14
    14d0:	9d 8b       	std	Y+21, r25	; 0x15
    14d2:	ae 8b       	std	Y+22, r26	; 0x16
    14d4:	bf 8b       	std	Y+23, r27	; 0x17
    14d6:	6c 89       	ldd	r22, Y+20	; 0x14
    14d8:	7d 89       	ldd	r23, Y+21	; 0x15
    14da:	8e 89       	ldd	r24, Y+22	; 0x16
    14dc:	9f 89       	ldd	r25, Y+23	; 0x17
    14de:	0e 94 9d 15 	call	0x2b3a	; 0x2b3a <__fixunssfsi>
    14e2:	dc 01       	movw	r26, r24
    14e4:	cb 01       	movw	r24, r22
    14e6:	8c 87       	std	Y+12, r24	; 0x0c
    14e8:	9d 87       	std	Y+13, r25	; 0x0d
    14ea:	ae 87       	std	Y+14, r26	; 0x0e
    14ec:	bf 87       	std	Y+15, r27	; 0x0f
    14ee:	6c 85       	ldd	r22, Y+12	; 0x0c
    14f0:	7d 85       	ldd	r23, Y+13	; 0x0d
    14f2:	8e 85       	ldd	r24, Y+14	; 0x0e
    14f4:	9f 85       	ldd	r25, Y+15	; 0x0f
    14f6:	0e 94 cc 15 	call	0x2b98	; 0x2b98 <__floatunsisf>
    14fa:	dc 01       	movw	r26, r24
    14fc:	cb 01       	movw	r24, r22
    14fe:	9c 01       	movw	r18, r24
    1500:	ad 01       	movw	r20, r26
    1502:	6c 89       	ldd	r22, Y+20	; 0x14
    1504:	7d 89       	ldd	r23, Y+21	; 0x15
    1506:	8e 89       	ldd	r24, Y+22	; 0x16
    1508:	9f 89       	ldd	r25, Y+23	; 0x17
    150a:	0e 94 b2 14 	call	0x2964	; 0x2964 <__subsf3>
    150e:	dc 01       	movw	r26, r24
    1510:	cb 01       	movw	r24, r22
    1512:	88 87       	std	Y+8, r24	; 0x08
    1514:	99 87       	std	Y+9, r25	; 0x09
    1516:	aa 87       	std	Y+10, r26	; 0x0a
    1518:	bb 87       	std	Y+11, r27	; 0x0b
    151a:	8c 85       	ldd	r24, Y+12	; 0x0c
    151c:	9d 85       	ldd	r25, Y+13	; 0x0d
    151e:	ae 85       	ldd	r26, Y+14	; 0x0e
    1520:	bf 85       	ldd	r27, Y+15	; 0x0f
    1522:	ea 89       	ldd	r30, Y+18	; 0x12
    1524:	fb 89       	ldd	r31, Y+19	; 0x13
    1526:	2a e0       	ldi	r18, 0x0A	; 10
    1528:	30 e0       	ldi	r19, 0x00	; 0
    152a:	ac 01       	movw	r20, r24
    152c:	bd 01       	movw	r22, r26
    152e:	cf 01       	movw	r24, r30
    1530:	0e 94 92 08 	call	0x1124	; 0x1124 <_ZN5Print5printEmi>
    1534:	9c 01       	movw	r18, r24
    1536:	89 81       	ldd	r24, Y+1	; 0x01
    1538:	9a 81       	ldd	r25, Y+2	; 0x02
    153a:	82 0f       	add	r24, r18
    153c:	93 1f       	adc	r25, r19
    153e:	9a 83       	std	Y+2, r25	; 0x02
    1540:	89 83       	std	Y+1, r24	; 0x01
    1542:	88 8d       	ldd	r24, Y+24	; 0x18
    1544:	88 23       	and	r24, r24
    1546:	69 f0       	breq	.+26     	; 0x1562 <_ZN5Print10printFloatEdh+0x222>
    1548:	8a 89       	ldd	r24, Y+18	; 0x12
    154a:	9b 89       	ldd	r25, Y+19	; 0x13
    154c:	60 e1       	ldi	r22, 0x10	; 16
    154e:	71 e0       	ldi	r23, 0x01	; 1
    1550:	0e 94 c0 07 	call	0xf80	; 0xf80 <_ZN5Print5printEPKc>
    1554:	9c 01       	movw	r18, r24
    1556:	89 81       	ldd	r24, Y+1	; 0x01
    1558:	9a 81       	ldd	r25, Y+2	; 0x02
    155a:	82 0f       	add	r24, r18
    155c:	93 1f       	adc	r25, r19
    155e:	9a 83       	std	Y+2, r25	; 0x02
    1560:	89 83       	std	Y+1, r24	; 0x01
    1562:	44 c0       	rjmp	.+136    	; 0x15ec <_ZN5Print10printFloatEdh+0x2ac>
    1564:	20 e0       	ldi	r18, 0x00	; 0
    1566:	30 e0       	ldi	r19, 0x00	; 0
    1568:	40 e2       	ldi	r20, 0x20	; 32
    156a:	51 e4       	ldi	r21, 0x41	; 65
    156c:	68 85       	ldd	r22, Y+8	; 0x08
    156e:	79 85       	ldd	r23, Y+9	; 0x09
    1570:	8a 85       	ldd	r24, Y+10	; 0x0a
    1572:	9b 85       	ldd	r25, Y+11	; 0x0b
    1574:	0e 94 83 16 	call	0x2d06	; 0x2d06 <__mulsf3>
    1578:	dc 01       	movw	r26, r24
    157a:	cb 01       	movw	r24, r22
    157c:	88 87       	std	Y+8, r24	; 0x08
    157e:	99 87       	std	Y+9, r25	; 0x09
    1580:	aa 87       	std	Y+10, r26	; 0x0a
    1582:	bb 87       	std	Y+11, r27	; 0x0b
    1584:	68 85       	ldd	r22, Y+8	; 0x08
    1586:	79 85       	ldd	r23, Y+9	; 0x09
    1588:	8a 85       	ldd	r24, Y+10	; 0x0a
    158a:	9b 85       	ldd	r25, Y+11	; 0x0b
    158c:	0e 94 96 15 	call	0x2b2c	; 0x2b2c <__fixsfsi>
    1590:	dc 01       	movw	r26, r24
    1592:	cb 01       	movw	r24, r22
    1594:	99 8b       	std	Y+17, r25	; 0x11
    1596:	88 8b       	std	Y+16, r24	; 0x10
    1598:	28 89       	ldd	r18, Y+16	; 0x10
    159a:	39 89       	ldd	r19, Y+17	; 0x11
    159c:	8a 89       	ldd	r24, Y+18	; 0x12
    159e:	9b 89       	ldd	r25, Y+19	; 0x13
    15a0:	4a e0       	ldi	r20, 0x0A	; 10
    15a2:	50 e0       	ldi	r21, 0x00	; 0
    15a4:	b9 01       	movw	r22, r18
    15a6:	0e 94 f4 07 	call	0xfe8	; 0xfe8 <_ZN5Print5printEii>
    15aa:	9c 01       	movw	r18, r24
    15ac:	89 81       	ldd	r24, Y+1	; 0x01
    15ae:	9a 81       	ldd	r25, Y+2	; 0x02
    15b0:	82 0f       	add	r24, r18
    15b2:	93 1f       	adc	r25, r19
    15b4:	9a 83       	std	Y+2, r25	; 0x02
    15b6:	89 83       	std	Y+1, r24	; 0x01
    15b8:	88 89       	ldd	r24, Y+16	; 0x10
    15ba:	99 89       	ldd	r25, Y+17	; 0x11
    15bc:	09 2e       	mov	r0, r25
    15be:	00 0c       	add	r0, r0
    15c0:	aa 0b       	sbc	r26, r26
    15c2:	bb 0b       	sbc	r27, r27
    15c4:	bc 01       	movw	r22, r24
    15c6:	cd 01       	movw	r24, r26
    15c8:	0e 94 ce 15 	call	0x2b9c	; 0x2b9c <__floatsisf>
    15cc:	dc 01       	movw	r26, r24
    15ce:	cb 01       	movw	r24, r22
    15d0:	9c 01       	movw	r18, r24
    15d2:	ad 01       	movw	r20, r26
    15d4:	68 85       	ldd	r22, Y+8	; 0x08
    15d6:	79 85       	ldd	r23, Y+9	; 0x09
    15d8:	8a 85       	ldd	r24, Y+10	; 0x0a
    15da:	9b 85       	ldd	r25, Y+11	; 0x0b
    15dc:	0e 94 b2 14 	call	0x2964	; 0x2964 <__subsf3>
    15e0:	dc 01       	movw	r26, r24
    15e2:	cb 01       	movw	r24, r22
    15e4:	88 87       	std	Y+8, r24	; 0x08
    15e6:	99 87       	std	Y+9, r25	; 0x09
    15e8:	aa 87       	std	Y+10, r26	; 0x0a
    15ea:	bb 87       	std	Y+11, r27	; 0x0b
    15ec:	88 8d       	ldd	r24, Y+24	; 0x18
    15ee:	9f ef       	ldi	r25, 0xFF	; 255
    15f0:	98 0f       	add	r25, r24
    15f2:	98 8f       	std	Y+24, r25	; 0x18
    15f4:	91 e0       	ldi	r25, 0x01	; 1
    15f6:	88 23       	and	r24, r24
    15f8:	09 f4       	brne	.+2      	; 0x15fc <_ZN5Print10printFloatEdh+0x2bc>
    15fa:	90 e0       	ldi	r25, 0x00	; 0
    15fc:	99 23       	and	r25, r25
    15fe:	09 f0       	breq	.+2      	; 0x1602 <_ZN5Print10printFloatEdh+0x2c2>
    1600:	b1 cf       	rjmp	.-158    	; 0x1564 <_ZN5Print10printFloatEdh+0x224>
    1602:	89 81       	ldd	r24, Y+1	; 0x01
    1604:	9a 81       	ldd	r25, Y+2	; 0x02
    1606:	68 96       	adiw	r28, 0x18	; 24
    1608:	0f b6       	in	r0, 0x3f	; 63
    160a:	f8 94       	cli
    160c:	de bf       	out	0x3e, r29	; 62
    160e:	0f be       	out	0x3f, r0	; 63
    1610:	cd bf       	out	0x3d, r28	; 61
    1612:	df 91       	pop	r29
    1614:	cf 91       	pop	r28
    1616:	1f 91       	pop	r17
    1618:	ff 90       	pop	r15
    161a:	ef 90       	pop	r14
    161c:	df 90       	pop	r13
    161e:	cf 90       	pop	r12
    1620:	08 95       	ret

00001622 <__vector_16>:
    1622:	1f 92       	push	r1
    1624:	0f 92       	push	r0
    1626:	00 90 5f 00 	lds	r0, 0x005F
    162a:	0f 92       	push	r0
    162c:	11 24       	eor	r1, r1
    162e:	8f 93       	push	r24
    1630:	9f 93       	push	r25
    1632:	af 93       	push	r26
    1634:	bf 93       	push	r27
    1636:	cf 93       	push	r28
    1638:	df 93       	push	r29
    163a:	cd b7       	in	r28, 0x3d	; 61
    163c:	de b7       	in	r29, 0x3e	; 62
    163e:	25 97       	sbiw	r28, 0x05	; 5
    1640:	de bf       	out	0x3e, r29	; 62
    1642:	cd bf       	out	0x3d, r28	; 61
    1644:	80 91 59 02 	lds	r24, 0x0259
    1648:	90 91 5a 02 	lds	r25, 0x025A
    164c:	a0 91 5b 02 	lds	r26, 0x025B
    1650:	b0 91 5c 02 	lds	r27, 0x025C
    1654:	89 83       	std	Y+1, r24	; 0x01
    1656:	9a 83       	std	Y+2, r25	; 0x02
    1658:	ab 83       	std	Y+3, r26	; 0x03
    165a:	bc 83       	std	Y+4, r27	; 0x04
    165c:	80 91 5d 02 	lds	r24, 0x025D
    1660:	8d 83       	std	Y+5, r24	; 0x05
    1662:	89 81       	ldd	r24, Y+1	; 0x01
    1664:	9a 81       	ldd	r25, Y+2	; 0x02
    1666:	ab 81       	ldd	r26, Y+3	; 0x03
    1668:	bc 81       	ldd	r27, Y+4	; 0x04
    166a:	01 96       	adiw	r24, 0x01	; 1
    166c:	a1 1d       	adc	r26, r1
    166e:	b1 1d       	adc	r27, r1
    1670:	89 83       	std	Y+1, r24	; 0x01
    1672:	9a 83       	std	Y+2, r25	; 0x02
    1674:	ab 83       	std	Y+3, r26	; 0x03
    1676:	bc 83       	std	Y+4, r27	; 0x04
    1678:	8d 81       	ldd	r24, Y+5	; 0x05
    167a:	8d 5f       	subi	r24, 0xFD	; 253
    167c:	8d 83       	std	Y+5, r24	; 0x05
    167e:	8d 81       	ldd	r24, Y+5	; 0x05
    1680:	8d 37       	cpi	r24, 0x7D	; 125
    1682:	70 f0       	brcs	.+28     	; 0x16a0 <__vector_16+0x7e>
    1684:	8d 81       	ldd	r24, Y+5	; 0x05
    1686:	8d 57       	subi	r24, 0x7D	; 125
    1688:	8d 83       	std	Y+5, r24	; 0x05
    168a:	89 81       	ldd	r24, Y+1	; 0x01
    168c:	9a 81       	ldd	r25, Y+2	; 0x02
    168e:	ab 81       	ldd	r26, Y+3	; 0x03
    1690:	bc 81       	ldd	r27, Y+4	; 0x04
    1692:	01 96       	adiw	r24, 0x01	; 1
    1694:	a1 1d       	adc	r26, r1
    1696:	b1 1d       	adc	r27, r1
    1698:	89 83       	std	Y+1, r24	; 0x01
    169a:	9a 83       	std	Y+2, r25	; 0x02
    169c:	ab 83       	std	Y+3, r26	; 0x03
    169e:	bc 83       	std	Y+4, r27	; 0x04
    16a0:	8d 81       	ldd	r24, Y+5	; 0x05
    16a2:	80 93 5d 02 	sts	0x025D, r24
    16a6:	89 81       	ldd	r24, Y+1	; 0x01
    16a8:	9a 81       	ldd	r25, Y+2	; 0x02
    16aa:	ab 81       	ldd	r26, Y+3	; 0x03
    16ac:	bc 81       	ldd	r27, Y+4	; 0x04
    16ae:	80 93 59 02 	sts	0x0259, r24
    16b2:	90 93 5a 02 	sts	0x025A, r25
    16b6:	a0 93 5b 02 	sts	0x025B, r26
    16ba:	b0 93 5c 02 	sts	0x025C, r27
    16be:	80 91 55 02 	lds	r24, 0x0255
    16c2:	90 91 56 02 	lds	r25, 0x0256
    16c6:	a0 91 57 02 	lds	r26, 0x0257
    16ca:	b0 91 58 02 	lds	r27, 0x0258
    16ce:	01 96       	adiw	r24, 0x01	; 1
    16d0:	a1 1d       	adc	r26, r1
    16d2:	b1 1d       	adc	r27, r1
    16d4:	80 93 55 02 	sts	0x0255, r24
    16d8:	90 93 56 02 	sts	0x0256, r25
    16dc:	a0 93 57 02 	sts	0x0257, r26
    16e0:	b0 93 58 02 	sts	0x0258, r27
    16e4:	0f 90       	pop	r0
    16e6:	0f 90       	pop	r0
    16e8:	0f 90       	pop	r0
    16ea:	0f 90       	pop	r0
    16ec:	0f 90       	pop	r0
    16ee:	df 91       	pop	r29
    16f0:	cf 91       	pop	r28
    16f2:	bf 91       	pop	r27
    16f4:	af 91       	pop	r26
    16f6:	9f 91       	pop	r25
    16f8:	8f 91       	pop	r24
    16fa:	0f 90       	pop	r0
    16fc:	00 92 5f 00 	sts	0x005F, r0
    1700:	0f 90       	pop	r0
    1702:	1f 90       	pop	r1
    1704:	18 95       	reti

00001706 <millis>:
    1706:	cf 93       	push	r28
    1708:	df 93       	push	r29
    170a:	00 d0       	rcall	.+0      	; 0x170c <millis+0x6>
    170c:	00 d0       	rcall	.+0      	; 0x170e <millis+0x8>
    170e:	1f 92       	push	r1
    1710:	cd b7       	in	r28, 0x3d	; 61
    1712:	de b7       	in	r29, 0x3e	; 62
    1714:	8f e5       	ldi	r24, 0x5F	; 95
    1716:	90 e0       	ldi	r25, 0x00	; 0
    1718:	fc 01       	movw	r30, r24
    171a:	80 81       	ld	r24, Z
    171c:	89 83       	std	Y+1, r24	; 0x01
    171e:	f8 94       	cli
    1720:	80 91 59 02 	lds	r24, 0x0259
    1724:	90 91 5a 02 	lds	r25, 0x025A
    1728:	a0 91 5b 02 	lds	r26, 0x025B
    172c:	b0 91 5c 02 	lds	r27, 0x025C
    1730:	8a 83       	std	Y+2, r24	; 0x02
    1732:	9b 83       	std	Y+3, r25	; 0x03
    1734:	ac 83       	std	Y+4, r26	; 0x04
    1736:	bd 83       	std	Y+5, r27	; 0x05
    1738:	8f e5       	ldi	r24, 0x5F	; 95
    173a:	90 e0       	ldi	r25, 0x00	; 0
    173c:	29 81       	ldd	r18, Y+1	; 0x01
    173e:	fc 01       	movw	r30, r24
    1740:	20 83       	st	Z, r18
    1742:	8a 81       	ldd	r24, Y+2	; 0x02
    1744:	9b 81       	ldd	r25, Y+3	; 0x03
    1746:	ac 81       	ldd	r26, Y+4	; 0x04
    1748:	bd 81       	ldd	r27, Y+5	; 0x05
    174a:	bc 01       	movw	r22, r24
    174c:	cd 01       	movw	r24, r26
    174e:	0f 90       	pop	r0
    1750:	0f 90       	pop	r0
    1752:	0f 90       	pop	r0
    1754:	0f 90       	pop	r0
    1756:	0f 90       	pop	r0
    1758:	df 91       	pop	r29
    175a:	cf 91       	pop	r28
    175c:	08 95       	ret

0000175e <init>:
    175e:	cf 93       	push	r28
    1760:	df 93       	push	r29
    1762:	cd b7       	in	r28, 0x3d	; 61
    1764:	de b7       	in	r29, 0x3e	; 62
    1766:	78 94       	sei
    1768:	84 e4       	ldi	r24, 0x44	; 68
    176a:	90 e0       	ldi	r25, 0x00	; 0
    176c:	24 e4       	ldi	r18, 0x44	; 68
    176e:	30 e0       	ldi	r19, 0x00	; 0
    1770:	f9 01       	movw	r30, r18
    1772:	20 81       	ld	r18, Z
    1774:	22 60       	ori	r18, 0x02	; 2
    1776:	fc 01       	movw	r30, r24
    1778:	20 83       	st	Z, r18
    177a:	84 e4       	ldi	r24, 0x44	; 68
    177c:	90 e0       	ldi	r25, 0x00	; 0
    177e:	24 e4       	ldi	r18, 0x44	; 68
    1780:	30 e0       	ldi	r19, 0x00	; 0
    1782:	f9 01       	movw	r30, r18
    1784:	20 81       	ld	r18, Z
    1786:	21 60       	ori	r18, 0x01	; 1
    1788:	fc 01       	movw	r30, r24
    178a:	20 83       	st	Z, r18
    178c:	85 e4       	ldi	r24, 0x45	; 69
    178e:	90 e0       	ldi	r25, 0x00	; 0
    1790:	25 e4       	ldi	r18, 0x45	; 69
    1792:	30 e0       	ldi	r19, 0x00	; 0
    1794:	f9 01       	movw	r30, r18
    1796:	20 81       	ld	r18, Z
    1798:	22 60       	ori	r18, 0x02	; 2
    179a:	fc 01       	movw	r30, r24
    179c:	20 83       	st	Z, r18
    179e:	85 e4       	ldi	r24, 0x45	; 69
    17a0:	90 e0       	ldi	r25, 0x00	; 0
    17a2:	25 e4       	ldi	r18, 0x45	; 69
    17a4:	30 e0       	ldi	r19, 0x00	; 0
    17a6:	f9 01       	movw	r30, r18
    17a8:	20 81       	ld	r18, Z
    17aa:	21 60       	ori	r18, 0x01	; 1
    17ac:	fc 01       	movw	r30, r24
    17ae:	20 83       	st	Z, r18
    17b0:	8e e6       	ldi	r24, 0x6E	; 110
    17b2:	90 e0       	ldi	r25, 0x00	; 0
    17b4:	2e e6       	ldi	r18, 0x6E	; 110
    17b6:	30 e0       	ldi	r19, 0x00	; 0
    17b8:	f9 01       	movw	r30, r18
    17ba:	20 81       	ld	r18, Z
    17bc:	21 60       	ori	r18, 0x01	; 1
    17be:	fc 01       	movw	r30, r24
    17c0:	20 83       	st	Z, r18
    17c2:	81 e8       	ldi	r24, 0x81	; 129
    17c4:	90 e0       	ldi	r25, 0x00	; 0
    17c6:	fc 01       	movw	r30, r24
    17c8:	10 82       	st	Z, r1
    17ca:	81 e8       	ldi	r24, 0x81	; 129
    17cc:	90 e0       	ldi	r25, 0x00	; 0
    17ce:	21 e8       	ldi	r18, 0x81	; 129
    17d0:	30 e0       	ldi	r19, 0x00	; 0
    17d2:	f9 01       	movw	r30, r18
    17d4:	20 81       	ld	r18, Z
    17d6:	22 60       	ori	r18, 0x02	; 2
    17d8:	fc 01       	movw	r30, r24
    17da:	20 83       	st	Z, r18
    17dc:	81 e8       	ldi	r24, 0x81	; 129
    17de:	90 e0       	ldi	r25, 0x00	; 0
    17e0:	21 e8       	ldi	r18, 0x81	; 129
    17e2:	30 e0       	ldi	r19, 0x00	; 0
    17e4:	f9 01       	movw	r30, r18
    17e6:	20 81       	ld	r18, Z
    17e8:	21 60       	ori	r18, 0x01	; 1
    17ea:	fc 01       	movw	r30, r24
    17ec:	20 83       	st	Z, r18
    17ee:	80 e8       	ldi	r24, 0x80	; 128
    17f0:	90 e0       	ldi	r25, 0x00	; 0
    17f2:	20 e8       	ldi	r18, 0x80	; 128
    17f4:	30 e0       	ldi	r19, 0x00	; 0
    17f6:	f9 01       	movw	r30, r18
    17f8:	20 81       	ld	r18, Z
    17fa:	21 60       	ori	r18, 0x01	; 1
    17fc:	fc 01       	movw	r30, r24
    17fe:	20 83       	st	Z, r18
    1800:	81 eb       	ldi	r24, 0xB1	; 177
    1802:	90 e0       	ldi	r25, 0x00	; 0
    1804:	21 eb       	ldi	r18, 0xB1	; 177
    1806:	30 e0       	ldi	r19, 0x00	; 0
    1808:	f9 01       	movw	r30, r18
    180a:	20 81       	ld	r18, Z
    180c:	24 60       	ori	r18, 0x04	; 4
    180e:	fc 01       	movw	r30, r24
    1810:	20 83       	st	Z, r18
    1812:	80 eb       	ldi	r24, 0xB0	; 176
    1814:	90 e0       	ldi	r25, 0x00	; 0
    1816:	20 eb       	ldi	r18, 0xB0	; 176
    1818:	30 e0       	ldi	r19, 0x00	; 0
    181a:	f9 01       	movw	r30, r18
    181c:	20 81       	ld	r18, Z
    181e:	21 60       	ori	r18, 0x01	; 1
    1820:	fc 01       	movw	r30, r24
    1822:	20 83       	st	Z, r18
    1824:	8a e7       	ldi	r24, 0x7A	; 122
    1826:	90 e0       	ldi	r25, 0x00	; 0
    1828:	2a e7       	ldi	r18, 0x7A	; 122
    182a:	30 e0       	ldi	r19, 0x00	; 0
    182c:	f9 01       	movw	r30, r18
    182e:	20 81       	ld	r18, Z
    1830:	24 60       	ori	r18, 0x04	; 4
    1832:	fc 01       	movw	r30, r24
    1834:	20 83       	st	Z, r18
    1836:	8a e7       	ldi	r24, 0x7A	; 122
    1838:	90 e0       	ldi	r25, 0x00	; 0
    183a:	2a e7       	ldi	r18, 0x7A	; 122
    183c:	30 e0       	ldi	r19, 0x00	; 0
    183e:	f9 01       	movw	r30, r18
    1840:	20 81       	ld	r18, Z
    1842:	22 60       	ori	r18, 0x02	; 2
    1844:	fc 01       	movw	r30, r24
    1846:	20 83       	st	Z, r18
    1848:	8a e7       	ldi	r24, 0x7A	; 122
    184a:	90 e0       	ldi	r25, 0x00	; 0
    184c:	2a e7       	ldi	r18, 0x7A	; 122
    184e:	30 e0       	ldi	r19, 0x00	; 0
    1850:	f9 01       	movw	r30, r18
    1852:	20 81       	ld	r18, Z
    1854:	21 60       	ori	r18, 0x01	; 1
    1856:	fc 01       	movw	r30, r24
    1858:	20 83       	st	Z, r18
    185a:	8a e7       	ldi	r24, 0x7A	; 122
    185c:	90 e0       	ldi	r25, 0x00	; 0
    185e:	2a e7       	ldi	r18, 0x7A	; 122
    1860:	30 e0       	ldi	r19, 0x00	; 0
    1862:	f9 01       	movw	r30, r18
    1864:	20 81       	ld	r18, Z
    1866:	20 68       	ori	r18, 0x80	; 128
    1868:	fc 01       	movw	r30, r24
    186a:	20 83       	st	Z, r18
    186c:	81 ec       	ldi	r24, 0xC1	; 193
    186e:	90 e0       	ldi	r25, 0x00	; 0
    1870:	fc 01       	movw	r30, r24
    1872:	10 82       	st	Z, r1
    1874:	df 91       	pop	r29
    1876:	cf 91       	pop	r28
    1878:	08 95       	ret

0000187a <analogRead>:
    187a:	cf 93       	push	r28
    187c:	df 93       	push	r29
    187e:	00 d0       	rcall	.+0      	; 0x1880 <analogRead+0x6>
    1880:	1f 92       	push	r1
    1882:	cd b7       	in	r28, 0x3d	; 61
    1884:	de b7       	in	r29, 0x3e	; 62
    1886:	8b 83       	std	Y+3, r24	; 0x03
    1888:	8b 81       	ldd	r24, Y+3	; 0x03
    188a:	8e 30       	cpi	r24, 0x0E	; 14
    188c:	18 f0       	brcs	.+6      	; 0x1894 <analogRead+0x1a>
    188e:	8b 81       	ldd	r24, Y+3	; 0x03
    1890:	8e 50       	subi	r24, 0x0E	; 14
    1892:	8b 83       	std	Y+3, r24	; 0x03
    1894:	8c e7       	ldi	r24, 0x7C	; 124
    1896:	90 e0       	ldi	r25, 0x00	; 0
    1898:	20 91 00 01 	lds	r18, 0x0100
    189c:	22 2f       	mov	r18, r18
    189e:	30 e0       	ldi	r19, 0x00	; 0
    18a0:	00 24       	eor	r0, r0
    18a2:	36 95       	lsr	r19
    18a4:	27 95       	ror	r18
    18a6:	07 94       	ror	r0
    18a8:	36 95       	lsr	r19
    18aa:	27 95       	ror	r18
    18ac:	07 94       	ror	r0
    18ae:	32 2f       	mov	r19, r18
    18b0:	20 2d       	mov	r18, r0
    18b2:	32 2f       	mov	r19, r18
    18b4:	2b 81       	ldd	r18, Y+3	; 0x03
    18b6:	27 70       	andi	r18, 0x07	; 7
    18b8:	23 2b       	or	r18, r19
    18ba:	fc 01       	movw	r30, r24
    18bc:	20 83       	st	Z, r18
    18be:	8a e7       	ldi	r24, 0x7A	; 122
    18c0:	90 e0       	ldi	r25, 0x00	; 0
    18c2:	2a e7       	ldi	r18, 0x7A	; 122
    18c4:	30 e0       	ldi	r19, 0x00	; 0
    18c6:	f9 01       	movw	r30, r18
    18c8:	20 81       	ld	r18, Z
    18ca:	20 64       	ori	r18, 0x40	; 64
    18cc:	fc 01       	movw	r30, r24
    18ce:	20 83       	st	Z, r18
    18d0:	00 00       	nop
    18d2:	8a e7       	ldi	r24, 0x7A	; 122
    18d4:	90 e0       	ldi	r25, 0x00	; 0
    18d6:	fc 01       	movw	r30, r24
    18d8:	80 81       	ld	r24, Z
    18da:	88 2f       	mov	r24, r24
    18dc:	90 e0       	ldi	r25, 0x00	; 0
    18de:	80 74       	andi	r24, 0x40	; 64
    18e0:	99 27       	eor	r25, r25
    18e2:	89 2b       	or	r24, r25
    18e4:	b1 f7       	brne	.-20     	; 0x18d2 <analogRead+0x58>
    18e6:	88 e7       	ldi	r24, 0x78	; 120
    18e8:	90 e0       	ldi	r25, 0x00	; 0
    18ea:	fc 01       	movw	r30, r24
    18ec:	80 81       	ld	r24, Z
    18ee:	89 83       	std	Y+1, r24	; 0x01
    18f0:	89 e7       	ldi	r24, 0x79	; 121
    18f2:	90 e0       	ldi	r25, 0x00	; 0
    18f4:	fc 01       	movw	r30, r24
    18f6:	80 81       	ld	r24, Z
    18f8:	8a 83       	std	Y+2, r24	; 0x02
    18fa:	8a 81       	ldd	r24, Y+2	; 0x02
    18fc:	88 2f       	mov	r24, r24
    18fe:	90 e0       	ldi	r25, 0x00	; 0
    1900:	38 2f       	mov	r19, r24
    1902:	22 27       	eor	r18, r18
    1904:	89 81       	ldd	r24, Y+1	; 0x01
    1906:	88 2f       	mov	r24, r24
    1908:	90 e0       	ldi	r25, 0x00	; 0
    190a:	82 2b       	or	r24, r18
    190c:	93 2b       	or	r25, r19
    190e:	0f 90       	pop	r0
    1910:	0f 90       	pop	r0
    1912:	0f 90       	pop	r0
    1914:	df 91       	pop	r29
    1916:	cf 91       	pop	r28
    1918:	08 95       	ret

0000191a <analogWrite>:
    191a:	cf 93       	push	r28
    191c:	df 93       	push	r29
    191e:	00 d0       	rcall	.+0      	; 0x1920 <analogWrite+0x6>
    1920:	00 d0       	rcall	.+0      	; 0x1922 <analogWrite+0x8>
    1922:	00 d0       	rcall	.+0      	; 0x1924 <analogWrite+0xa>
    1924:	cd b7       	in	r28, 0x3d	; 61
    1926:	de b7       	in	r29, 0x3e	; 62
    1928:	8c 83       	std	Y+4, r24	; 0x04
    192a:	7e 83       	std	Y+6, r23	; 0x06
    192c:	6d 83       	std	Y+5, r22	; 0x05
    192e:	61 e0       	ldi	r22, 0x01	; 1
    1930:	8c 81       	ldd	r24, Y+4	; 0x04
    1932:	0e 94 49 0d 	call	0x1a92	; 0x1a92 <pinMode>
    1936:	8d 81       	ldd	r24, Y+5	; 0x05
    1938:	9e 81       	ldd	r25, Y+6	; 0x06
    193a:	89 2b       	or	r24, r25
    193c:	29 f4       	brne	.+10     	; 0x1948 <analogWrite+0x2e>
    193e:	60 e0       	ldi	r22, 0x00	; 0
    1940:	8c 81       	ldd	r24, Y+4	; 0x04
    1942:	0e 94 70 0e 	call	0x1ce0	; 0x1ce0 <digitalWrite>
    1946:	9c c0       	rjmp	.+312    	; 0x1a80 <analogWrite+0x166>
    1948:	8d 81       	ldd	r24, Y+5	; 0x05
    194a:	9e 81       	ldd	r25, Y+6	; 0x06
    194c:	8f 3f       	cpi	r24, 0xFF	; 255
    194e:	91 05       	cpc	r25, r1
    1950:	29 f4       	brne	.+10     	; 0x195c <analogWrite+0x42>
    1952:	61 e0       	ldi	r22, 0x01	; 1
    1954:	8c 81       	ldd	r24, Y+4	; 0x04
    1956:	0e 94 70 0e 	call	0x1ce0	; 0x1ce0 <digitalWrite>
    195a:	92 c0       	rjmp	.+292    	; 0x1a80 <analogWrite+0x166>
    195c:	8c 81       	ldd	r24, Y+4	; 0x04
    195e:	88 2f       	mov	r24, r24
    1960:	90 e0       	ldi	r25, 0x00	; 0
    1962:	82 55       	subi	r24, 0x52	; 82
    1964:	9f 4f       	sbci	r25, 0xFF	; 255
    1966:	9a 83       	std	Y+2, r25	; 0x02
    1968:	89 83       	std	Y+1, r24	; 0x01
    196a:	89 81       	ldd	r24, Y+1	; 0x01
    196c:	9a 81       	ldd	r25, Y+2	; 0x02
    196e:	fc 01       	movw	r30, r24
    1970:	84 91       	lpm	r24, Z
    1972:	8b 83       	std	Y+3, r24	; 0x03
    1974:	8b 81       	ldd	r24, Y+3	; 0x03
    1976:	88 2f       	mov	r24, r24
    1978:	90 e0       	ldi	r25, 0x00	; 0
    197a:	83 30       	cpi	r24, 0x03	; 3
    197c:	91 05       	cpc	r25, r1
    197e:	91 f1       	breq	.+100    	; 0x19e4 <analogWrite+0xca>
    1980:	84 30       	cpi	r24, 0x04	; 4
    1982:	91 05       	cpc	r25, r1
    1984:	34 f4       	brge	.+12     	; 0x1992 <analogWrite+0x78>
    1986:	81 30       	cpi	r24, 0x01	; 1
    1988:	91 05       	cpc	r25, r1
    198a:	71 f0       	breq	.+28     	; 0x19a8 <analogWrite+0x8e>
    198c:	02 97       	sbiw	r24, 0x02	; 2
    198e:	d9 f0       	breq	.+54     	; 0x19c6 <analogWrite+0xac>
    1990:	69 c0       	rjmp	.+210    	; 0x1a64 <analogWrite+0x14a>
    1992:	87 30       	cpi	r24, 0x07	; 7
    1994:	91 05       	cpc	r25, r1
    1996:	09 f4       	brne	.+2      	; 0x199a <analogWrite+0x80>
    1998:	47 c0       	rjmp	.+142    	; 0x1a28 <analogWrite+0x10e>
    199a:	88 30       	cpi	r24, 0x08	; 8
    199c:	91 05       	cpc	r25, r1
    199e:	09 f4       	brne	.+2      	; 0x19a2 <analogWrite+0x88>
    19a0:	52 c0       	rjmp	.+164    	; 0x1a46 <analogWrite+0x12c>
    19a2:	04 97       	sbiw	r24, 0x04	; 4
    19a4:	81 f1       	breq	.+96     	; 0x1a06 <analogWrite+0xec>
    19a6:	5e c0       	rjmp	.+188    	; 0x1a64 <analogWrite+0x14a>
    19a8:	84 e4       	ldi	r24, 0x44	; 68
    19aa:	90 e0       	ldi	r25, 0x00	; 0
    19ac:	24 e4       	ldi	r18, 0x44	; 68
    19ae:	30 e0       	ldi	r19, 0x00	; 0
    19b0:	f9 01       	movw	r30, r18
    19b2:	20 81       	ld	r18, Z
    19b4:	20 68       	ori	r18, 0x80	; 128
    19b6:	fc 01       	movw	r30, r24
    19b8:	20 83       	st	Z, r18
    19ba:	87 e4       	ldi	r24, 0x47	; 71
    19bc:	90 e0       	ldi	r25, 0x00	; 0
    19be:	2d 81       	ldd	r18, Y+5	; 0x05
    19c0:	fc 01       	movw	r30, r24
    19c2:	20 83       	st	Z, r18
    19c4:	5d c0       	rjmp	.+186    	; 0x1a80 <analogWrite+0x166>
    19c6:	84 e4       	ldi	r24, 0x44	; 68
    19c8:	90 e0       	ldi	r25, 0x00	; 0
    19ca:	24 e4       	ldi	r18, 0x44	; 68
    19cc:	30 e0       	ldi	r19, 0x00	; 0
    19ce:	f9 01       	movw	r30, r18
    19d0:	20 81       	ld	r18, Z
    19d2:	20 62       	ori	r18, 0x20	; 32
    19d4:	fc 01       	movw	r30, r24
    19d6:	20 83       	st	Z, r18
    19d8:	88 e4       	ldi	r24, 0x48	; 72
    19da:	90 e0       	ldi	r25, 0x00	; 0
    19dc:	2d 81       	ldd	r18, Y+5	; 0x05
    19de:	fc 01       	movw	r30, r24
    19e0:	20 83       	st	Z, r18
    19e2:	4e c0       	rjmp	.+156    	; 0x1a80 <analogWrite+0x166>
    19e4:	80 e8       	ldi	r24, 0x80	; 128
    19e6:	90 e0       	ldi	r25, 0x00	; 0
    19e8:	20 e8       	ldi	r18, 0x80	; 128
    19ea:	30 e0       	ldi	r19, 0x00	; 0
    19ec:	f9 01       	movw	r30, r18
    19ee:	20 81       	ld	r18, Z
    19f0:	20 68       	ori	r18, 0x80	; 128
    19f2:	fc 01       	movw	r30, r24
    19f4:	20 83       	st	Z, r18
    19f6:	88 e8       	ldi	r24, 0x88	; 136
    19f8:	90 e0       	ldi	r25, 0x00	; 0
    19fa:	2d 81       	ldd	r18, Y+5	; 0x05
    19fc:	3e 81       	ldd	r19, Y+6	; 0x06
    19fe:	fc 01       	movw	r30, r24
    1a00:	31 83       	std	Z+1, r19	; 0x01
    1a02:	20 83       	st	Z, r18
    1a04:	3d c0       	rjmp	.+122    	; 0x1a80 <analogWrite+0x166>
    1a06:	80 e8       	ldi	r24, 0x80	; 128
    1a08:	90 e0       	ldi	r25, 0x00	; 0
    1a0a:	20 e8       	ldi	r18, 0x80	; 128
    1a0c:	30 e0       	ldi	r19, 0x00	; 0
    1a0e:	f9 01       	movw	r30, r18
    1a10:	20 81       	ld	r18, Z
    1a12:	20 62       	ori	r18, 0x20	; 32
    1a14:	fc 01       	movw	r30, r24
    1a16:	20 83       	st	Z, r18
    1a18:	8a e8       	ldi	r24, 0x8A	; 138
    1a1a:	90 e0       	ldi	r25, 0x00	; 0
    1a1c:	2d 81       	ldd	r18, Y+5	; 0x05
    1a1e:	3e 81       	ldd	r19, Y+6	; 0x06
    1a20:	fc 01       	movw	r30, r24
    1a22:	31 83       	std	Z+1, r19	; 0x01
    1a24:	20 83       	st	Z, r18
    1a26:	2c c0       	rjmp	.+88     	; 0x1a80 <analogWrite+0x166>
    1a28:	80 eb       	ldi	r24, 0xB0	; 176
    1a2a:	90 e0       	ldi	r25, 0x00	; 0
    1a2c:	20 eb       	ldi	r18, 0xB0	; 176
    1a2e:	30 e0       	ldi	r19, 0x00	; 0
    1a30:	f9 01       	movw	r30, r18
    1a32:	20 81       	ld	r18, Z
    1a34:	20 68       	ori	r18, 0x80	; 128
    1a36:	fc 01       	movw	r30, r24
    1a38:	20 83       	st	Z, r18
    1a3a:	83 eb       	ldi	r24, 0xB3	; 179
    1a3c:	90 e0       	ldi	r25, 0x00	; 0
    1a3e:	2d 81       	ldd	r18, Y+5	; 0x05
    1a40:	fc 01       	movw	r30, r24
    1a42:	20 83       	st	Z, r18
    1a44:	1d c0       	rjmp	.+58     	; 0x1a80 <analogWrite+0x166>
    1a46:	80 eb       	ldi	r24, 0xB0	; 176
    1a48:	90 e0       	ldi	r25, 0x00	; 0
    1a4a:	20 eb       	ldi	r18, 0xB0	; 176
    1a4c:	30 e0       	ldi	r19, 0x00	; 0
    1a4e:	f9 01       	movw	r30, r18
    1a50:	20 81       	ld	r18, Z
    1a52:	20 62       	ori	r18, 0x20	; 32
    1a54:	fc 01       	movw	r30, r24
    1a56:	20 83       	st	Z, r18
    1a58:	84 eb       	ldi	r24, 0xB4	; 180
    1a5a:	90 e0       	ldi	r25, 0x00	; 0
    1a5c:	2d 81       	ldd	r18, Y+5	; 0x05
    1a5e:	fc 01       	movw	r30, r24
    1a60:	20 83       	st	Z, r18
    1a62:	0e c0       	rjmp	.+28     	; 0x1a80 <analogWrite+0x166>
    1a64:	8d 81       	ldd	r24, Y+5	; 0x05
    1a66:	9e 81       	ldd	r25, Y+6	; 0x06
    1a68:	80 38       	cpi	r24, 0x80	; 128
    1a6a:	91 05       	cpc	r25, r1
    1a6c:	2c f4       	brge	.+10     	; 0x1a78 <analogWrite+0x15e>
    1a6e:	60 e0       	ldi	r22, 0x00	; 0
    1a70:	8c 81       	ldd	r24, Y+4	; 0x04
    1a72:	0e 94 70 0e 	call	0x1ce0	; 0x1ce0 <digitalWrite>
    1a76:	04 c0       	rjmp	.+8      	; 0x1a80 <analogWrite+0x166>
    1a78:	61 e0       	ldi	r22, 0x01	; 1
    1a7a:	8c 81       	ldd	r24, Y+4	; 0x04
    1a7c:	0e 94 70 0e 	call	0x1ce0	; 0x1ce0 <digitalWrite>
    1a80:	26 96       	adiw	r28, 0x06	; 6
    1a82:	0f b6       	in	r0, 0x3f	; 63
    1a84:	f8 94       	cli
    1a86:	de bf       	out	0x3e, r29	; 62
    1a88:	0f be       	out	0x3f, r0	; 63
    1a8a:	cd bf       	out	0x3d, r28	; 61
    1a8c:	df 91       	pop	r29
    1a8e:	cf 91       	pop	r28
    1a90:	08 95       	ret

00001a92 <pinMode>:
    1a92:	cf 93       	push	r28
    1a94:	df 93       	push	r29
    1a96:	cd b7       	in	r28, 0x3d	; 61
    1a98:	de b7       	in	r29, 0x3e	; 62
    1a9a:	69 97       	sbiw	r28, 0x19	; 25
    1a9c:	0f b6       	in	r0, 0x3f	; 63
    1a9e:	f8 94       	cli
    1aa0:	de bf       	out	0x3e, r29	; 62
    1aa2:	0f be       	out	0x3f, r0	; 63
    1aa4:	cd bf       	out	0x3d, r28	; 61
    1aa6:	88 8f       	std	Y+24, r24	; 0x18
    1aa8:	69 8f       	std	Y+25, r22	; 0x19
    1aaa:	88 8d       	ldd	r24, Y+24	; 0x18
    1aac:	88 2f       	mov	r24, r24
    1aae:	90 e0       	ldi	r25, 0x00	; 0
    1ab0:	86 56       	subi	r24, 0x66	; 102
    1ab2:	9f 4f       	sbci	r25, 0xFF	; 255
    1ab4:	9a 83       	std	Y+2, r25	; 0x02
    1ab6:	89 83       	std	Y+1, r24	; 0x01
    1ab8:	89 81       	ldd	r24, Y+1	; 0x01
    1aba:	9a 81       	ldd	r25, Y+2	; 0x02
    1abc:	fc 01       	movw	r30, r24
    1abe:	84 91       	lpm	r24, Z
    1ac0:	8b 83       	std	Y+3, r24	; 0x03
    1ac2:	8b 81       	ldd	r24, Y+3	; 0x03
    1ac4:	8c 83       	std	Y+4, r24	; 0x04
    1ac6:	88 8d       	ldd	r24, Y+24	; 0x18
    1ac8:	88 2f       	mov	r24, r24
    1aca:	90 e0       	ldi	r25, 0x00	; 0
    1acc:	8a 57       	subi	r24, 0x7A	; 122
    1ace:	9f 4f       	sbci	r25, 0xFF	; 255
    1ad0:	9e 83       	std	Y+6, r25	; 0x06
    1ad2:	8d 83       	std	Y+5, r24	; 0x05
    1ad4:	8d 81       	ldd	r24, Y+5	; 0x05
    1ad6:	9e 81       	ldd	r25, Y+6	; 0x06
    1ad8:	fc 01       	movw	r30, r24
    1ada:	84 91       	lpm	r24, Z
    1adc:	8f 83       	std	Y+7, r24	; 0x07
    1ade:	8f 81       	ldd	r24, Y+7	; 0x07
    1ae0:	88 87       	std	Y+8, r24	; 0x08
    1ae2:	88 85       	ldd	r24, Y+8	; 0x08
    1ae4:	88 23       	and	r24, r24
    1ae6:	09 f4       	brne	.+2      	; 0x1aea <pinMode+0x58>
    1ae8:	94 c0       	rjmp	.+296    	; 0x1c12 <pinMode+0x180>
    1aea:	88 85       	ldd	r24, Y+8	; 0x08
    1aec:	88 2f       	mov	r24, r24
    1aee:	90 e0       	ldi	r25, 0x00	; 0
    1af0:	88 0f       	add	r24, r24
    1af2:	99 1f       	adc	r25, r25
    1af4:	88 59       	subi	r24, 0x98	; 152
    1af6:	9f 4f       	sbci	r25, 0xFF	; 255
    1af8:	9a 87       	std	Y+10, r25	; 0x0a
    1afa:	89 87       	std	Y+9, r24	; 0x09
    1afc:	89 85       	ldd	r24, Y+9	; 0x09
    1afe:	9a 85       	ldd	r25, Y+10	; 0x0a
    1b00:	fc 01       	movw	r30, r24
    1b02:	25 91       	lpm	r18, Z+
    1b04:	34 91       	lpm	r19, Z
    1b06:	cf 01       	movw	r24, r30
    1b08:	3c 87       	std	Y+12, r19	; 0x0c
    1b0a:	2b 87       	std	Y+11, r18	; 0x0b
    1b0c:	9a 87       	std	Y+10, r25	; 0x0a
    1b0e:	89 87       	std	Y+9, r24	; 0x09
    1b10:	8b 85       	ldd	r24, Y+11	; 0x0b
    1b12:	9c 85       	ldd	r25, Y+12	; 0x0c
    1b14:	9e 87       	std	Y+14, r25	; 0x0e
    1b16:	8d 87       	std	Y+13, r24	; 0x0d
    1b18:	88 85       	ldd	r24, Y+8	; 0x08
    1b1a:	88 2f       	mov	r24, r24
    1b1c:	90 e0       	ldi	r25, 0x00	; 0
    1b1e:	88 0f       	add	r24, r24
    1b20:	99 1f       	adc	r25, r25
    1b22:	8e 58       	subi	r24, 0x8E	; 142
    1b24:	9f 4f       	sbci	r25, 0xFF	; 255
    1b26:	98 8b       	std	Y+16, r25	; 0x10
    1b28:	8f 87       	std	Y+15, r24	; 0x0f
    1b2a:	8f 85       	ldd	r24, Y+15	; 0x0f
    1b2c:	98 89       	ldd	r25, Y+16	; 0x10
    1b2e:	fc 01       	movw	r30, r24
    1b30:	25 91       	lpm	r18, Z+
    1b32:	34 91       	lpm	r19, Z
    1b34:	cf 01       	movw	r24, r30
    1b36:	3a 8b       	std	Y+18, r19	; 0x12
    1b38:	29 8b       	std	Y+17, r18	; 0x11
    1b3a:	98 8b       	std	Y+16, r25	; 0x10
    1b3c:	8f 87       	std	Y+15, r24	; 0x0f
    1b3e:	89 89       	ldd	r24, Y+17	; 0x11
    1b40:	9a 89       	ldd	r25, Y+18	; 0x12
    1b42:	9c 8b       	std	Y+20, r25	; 0x14
    1b44:	8b 8b       	std	Y+19, r24	; 0x13
    1b46:	89 8d       	ldd	r24, Y+25	; 0x19
    1b48:	88 23       	and	r24, r24
    1b4a:	31 f5       	brne	.+76     	; 0x1b98 <pinMode+0x106>
    1b4c:	8f e5       	ldi	r24, 0x5F	; 95
    1b4e:	90 e0       	ldi	r25, 0x00	; 0
    1b50:	fc 01       	movw	r30, r24
    1b52:	80 81       	ld	r24, Z
    1b54:	8d 8b       	std	Y+21, r24	; 0x15
    1b56:	f8 94       	cli
    1b58:	8d 85       	ldd	r24, Y+13	; 0x0d
    1b5a:	9e 85       	ldd	r25, Y+14	; 0x0e
    1b5c:	fc 01       	movw	r30, r24
    1b5e:	80 81       	ld	r24, Z
    1b60:	98 2f       	mov	r25, r24
    1b62:	8c 81       	ldd	r24, Y+4	; 0x04
    1b64:	80 95       	com	r24
    1b66:	89 23       	and	r24, r25
    1b68:	28 2f       	mov	r18, r24
    1b6a:	8d 85       	ldd	r24, Y+13	; 0x0d
    1b6c:	9e 85       	ldd	r25, Y+14	; 0x0e
    1b6e:	fc 01       	movw	r30, r24
    1b70:	20 83       	st	Z, r18
    1b72:	8b 89       	ldd	r24, Y+19	; 0x13
    1b74:	9c 89       	ldd	r25, Y+20	; 0x14
    1b76:	fc 01       	movw	r30, r24
    1b78:	80 81       	ld	r24, Z
    1b7a:	98 2f       	mov	r25, r24
    1b7c:	8c 81       	ldd	r24, Y+4	; 0x04
    1b7e:	80 95       	com	r24
    1b80:	89 23       	and	r24, r25
    1b82:	28 2f       	mov	r18, r24
    1b84:	8b 89       	ldd	r24, Y+19	; 0x13
    1b86:	9c 89       	ldd	r25, Y+20	; 0x14
    1b88:	fc 01       	movw	r30, r24
    1b8a:	20 83       	st	Z, r18
    1b8c:	8f e5       	ldi	r24, 0x5F	; 95
    1b8e:	90 e0       	ldi	r25, 0x00	; 0
    1b90:	2d 89       	ldd	r18, Y+21	; 0x15
    1b92:	fc 01       	movw	r30, r24
    1b94:	20 83       	st	Z, r18
    1b96:	3d c0       	rjmp	.+122    	; 0x1c12 <pinMode+0x180>
    1b98:	89 8d       	ldd	r24, Y+25	; 0x19
    1b9a:	82 30       	cpi	r24, 0x02	; 2
    1b9c:	21 f5       	brne	.+72     	; 0x1be6 <pinMode+0x154>
    1b9e:	8f e5       	ldi	r24, 0x5F	; 95
    1ba0:	90 e0       	ldi	r25, 0x00	; 0
    1ba2:	fc 01       	movw	r30, r24
    1ba4:	80 81       	ld	r24, Z
    1ba6:	8e 8b       	std	Y+22, r24	; 0x16
    1ba8:	f8 94       	cli
    1baa:	8d 85       	ldd	r24, Y+13	; 0x0d
    1bac:	9e 85       	ldd	r25, Y+14	; 0x0e
    1bae:	fc 01       	movw	r30, r24
    1bb0:	80 81       	ld	r24, Z
    1bb2:	98 2f       	mov	r25, r24
    1bb4:	8c 81       	ldd	r24, Y+4	; 0x04
    1bb6:	80 95       	com	r24
    1bb8:	89 23       	and	r24, r25
    1bba:	28 2f       	mov	r18, r24
    1bbc:	8d 85       	ldd	r24, Y+13	; 0x0d
    1bbe:	9e 85       	ldd	r25, Y+14	; 0x0e
    1bc0:	fc 01       	movw	r30, r24
    1bc2:	20 83       	st	Z, r18
    1bc4:	8b 89       	ldd	r24, Y+19	; 0x13
    1bc6:	9c 89       	ldd	r25, Y+20	; 0x14
    1bc8:	fc 01       	movw	r30, r24
    1bca:	90 81       	ld	r25, Z
    1bcc:	8c 81       	ldd	r24, Y+4	; 0x04
    1bce:	29 2f       	mov	r18, r25
    1bd0:	28 2b       	or	r18, r24
    1bd2:	8b 89       	ldd	r24, Y+19	; 0x13
    1bd4:	9c 89       	ldd	r25, Y+20	; 0x14
    1bd6:	fc 01       	movw	r30, r24
    1bd8:	20 83       	st	Z, r18
    1bda:	8f e5       	ldi	r24, 0x5F	; 95
    1bdc:	90 e0       	ldi	r25, 0x00	; 0
    1bde:	2e 89       	ldd	r18, Y+22	; 0x16
    1be0:	fc 01       	movw	r30, r24
    1be2:	20 83       	st	Z, r18
    1be4:	16 c0       	rjmp	.+44     	; 0x1c12 <pinMode+0x180>
    1be6:	8f e5       	ldi	r24, 0x5F	; 95
    1be8:	90 e0       	ldi	r25, 0x00	; 0
    1bea:	fc 01       	movw	r30, r24
    1bec:	80 81       	ld	r24, Z
    1bee:	8f 8b       	std	Y+23, r24	; 0x17
    1bf0:	f8 94       	cli
    1bf2:	8d 85       	ldd	r24, Y+13	; 0x0d
    1bf4:	9e 85       	ldd	r25, Y+14	; 0x0e
    1bf6:	fc 01       	movw	r30, r24
    1bf8:	90 81       	ld	r25, Z
    1bfa:	8c 81       	ldd	r24, Y+4	; 0x04
    1bfc:	29 2f       	mov	r18, r25
    1bfe:	28 2b       	or	r18, r24
    1c00:	8d 85       	ldd	r24, Y+13	; 0x0d
    1c02:	9e 85       	ldd	r25, Y+14	; 0x0e
    1c04:	fc 01       	movw	r30, r24
    1c06:	20 83       	st	Z, r18
    1c08:	8f e5       	ldi	r24, 0x5F	; 95
    1c0a:	90 e0       	ldi	r25, 0x00	; 0
    1c0c:	2f 89       	ldd	r18, Y+23	; 0x17
    1c0e:	fc 01       	movw	r30, r24
    1c10:	20 83       	st	Z, r18
    1c12:	69 96       	adiw	r28, 0x19	; 25
    1c14:	0f b6       	in	r0, 0x3f	; 63
    1c16:	f8 94       	cli
    1c18:	de bf       	out	0x3e, r29	; 62
    1c1a:	0f be       	out	0x3f, r0	; 63
    1c1c:	cd bf       	out	0x3d, r28	; 61
    1c1e:	df 91       	pop	r29
    1c20:	cf 91       	pop	r28
    1c22:	08 95       	ret

00001c24 <turnOffPWM>:
    1c24:	cf 93       	push	r28
    1c26:	df 93       	push	r29
    1c28:	1f 92       	push	r1
    1c2a:	cd b7       	in	r28, 0x3d	; 61
    1c2c:	de b7       	in	r29, 0x3e	; 62
    1c2e:	89 83       	std	Y+1, r24	; 0x01
    1c30:	89 81       	ldd	r24, Y+1	; 0x01
    1c32:	88 2f       	mov	r24, r24
    1c34:	90 e0       	ldi	r25, 0x00	; 0
    1c36:	83 30       	cpi	r24, 0x03	; 3
    1c38:	91 05       	cpc	r25, r1
    1c3a:	91 f0       	breq	.+36     	; 0x1c60 <turnOffPWM+0x3c>
    1c3c:	84 30       	cpi	r24, 0x04	; 4
    1c3e:	91 05       	cpc	r25, r1
    1c40:	34 f4       	brge	.+12     	; 0x1c4e <turnOffPWM+0x2a>
    1c42:	81 30       	cpi	r24, 0x01	; 1
    1c44:	91 05       	cpc	r25, r1
    1c46:	01 f1       	breq	.+64     	; 0x1c88 <turnOffPWM+0x64>
    1c48:	02 97       	sbiw	r24, 0x02	; 2
    1c4a:	41 f1       	breq	.+80     	; 0x1c9c <turnOffPWM+0x78>
    1c4c:	45 c0       	rjmp	.+138    	; 0x1cd8 <turnOffPWM+0xb4>
    1c4e:	87 30       	cpi	r24, 0x07	; 7
    1c50:	91 05       	cpc	r25, r1
    1c52:	71 f1       	breq	.+92     	; 0x1cb0 <turnOffPWM+0x8c>
    1c54:	88 30       	cpi	r24, 0x08	; 8
    1c56:	91 05       	cpc	r25, r1
    1c58:	a9 f1       	breq	.+106    	; 0x1cc4 <turnOffPWM+0xa0>
    1c5a:	04 97       	sbiw	r24, 0x04	; 4
    1c5c:	59 f0       	breq	.+22     	; 0x1c74 <turnOffPWM+0x50>
    1c5e:	3c c0       	rjmp	.+120    	; 0x1cd8 <turnOffPWM+0xb4>
    1c60:	80 e8       	ldi	r24, 0x80	; 128
    1c62:	90 e0       	ldi	r25, 0x00	; 0
    1c64:	20 e8       	ldi	r18, 0x80	; 128
    1c66:	30 e0       	ldi	r19, 0x00	; 0
    1c68:	f9 01       	movw	r30, r18
    1c6a:	20 81       	ld	r18, Z
    1c6c:	2f 77       	andi	r18, 0x7F	; 127
    1c6e:	fc 01       	movw	r30, r24
    1c70:	20 83       	st	Z, r18
    1c72:	32 c0       	rjmp	.+100    	; 0x1cd8 <turnOffPWM+0xb4>
    1c74:	80 e8       	ldi	r24, 0x80	; 128
    1c76:	90 e0       	ldi	r25, 0x00	; 0
    1c78:	20 e8       	ldi	r18, 0x80	; 128
    1c7a:	30 e0       	ldi	r19, 0x00	; 0
    1c7c:	f9 01       	movw	r30, r18
    1c7e:	20 81       	ld	r18, Z
    1c80:	2f 7d       	andi	r18, 0xDF	; 223
    1c82:	fc 01       	movw	r30, r24
    1c84:	20 83       	st	Z, r18
    1c86:	28 c0       	rjmp	.+80     	; 0x1cd8 <turnOffPWM+0xb4>
    1c88:	84 e4       	ldi	r24, 0x44	; 68
    1c8a:	90 e0       	ldi	r25, 0x00	; 0
    1c8c:	24 e4       	ldi	r18, 0x44	; 68
    1c8e:	30 e0       	ldi	r19, 0x00	; 0
    1c90:	f9 01       	movw	r30, r18
    1c92:	20 81       	ld	r18, Z
    1c94:	2f 77       	andi	r18, 0x7F	; 127
    1c96:	fc 01       	movw	r30, r24
    1c98:	20 83       	st	Z, r18
    1c9a:	1e c0       	rjmp	.+60     	; 0x1cd8 <turnOffPWM+0xb4>
    1c9c:	84 e4       	ldi	r24, 0x44	; 68
    1c9e:	90 e0       	ldi	r25, 0x00	; 0
    1ca0:	24 e4       	ldi	r18, 0x44	; 68
    1ca2:	30 e0       	ldi	r19, 0x00	; 0
    1ca4:	f9 01       	movw	r30, r18
    1ca6:	20 81       	ld	r18, Z
    1ca8:	2f 7d       	andi	r18, 0xDF	; 223
    1caa:	fc 01       	movw	r30, r24
    1cac:	20 83       	st	Z, r18
    1cae:	14 c0       	rjmp	.+40     	; 0x1cd8 <turnOffPWM+0xb4>
    1cb0:	80 eb       	ldi	r24, 0xB0	; 176
    1cb2:	90 e0       	ldi	r25, 0x00	; 0
    1cb4:	20 eb       	ldi	r18, 0xB0	; 176
    1cb6:	30 e0       	ldi	r19, 0x00	; 0
    1cb8:	f9 01       	movw	r30, r18
    1cba:	20 81       	ld	r18, Z
    1cbc:	2f 77       	andi	r18, 0x7F	; 127
    1cbe:	fc 01       	movw	r30, r24
    1cc0:	20 83       	st	Z, r18
    1cc2:	0a c0       	rjmp	.+20     	; 0x1cd8 <turnOffPWM+0xb4>
    1cc4:	80 eb       	ldi	r24, 0xB0	; 176
    1cc6:	90 e0       	ldi	r25, 0x00	; 0
    1cc8:	20 eb       	ldi	r18, 0xB0	; 176
    1cca:	30 e0       	ldi	r19, 0x00	; 0
    1ccc:	f9 01       	movw	r30, r18
    1cce:	20 81       	ld	r18, Z
    1cd0:	2f 7d       	andi	r18, 0xDF	; 223
    1cd2:	fc 01       	movw	r30, r24
    1cd4:	20 83       	st	Z, r18
    1cd6:	00 00       	nop
    1cd8:	0f 90       	pop	r0
    1cda:	df 91       	pop	r29
    1cdc:	cf 91       	pop	r28
    1cde:	08 95       	ret

00001ce0 <digitalWrite>:
    1ce0:	cf 93       	push	r28
    1ce2:	df 93       	push	r29
    1ce4:	cd b7       	in	r28, 0x3d	; 61
    1ce6:	de b7       	in	r29, 0x3e	; 62
    1ce8:	65 97       	sbiw	r28, 0x15	; 21
    1cea:	0f b6       	in	r0, 0x3f	; 63
    1cec:	f8 94       	cli
    1cee:	de bf       	out	0x3e, r29	; 62
    1cf0:	0f be       	out	0x3f, r0	; 63
    1cf2:	cd bf       	out	0x3d, r28	; 61
    1cf4:	8c 8b       	std	Y+20, r24	; 0x14
    1cf6:	6d 8b       	std	Y+21, r22	; 0x15
    1cf8:	8c 89       	ldd	r24, Y+20	; 0x14
    1cfa:	88 2f       	mov	r24, r24
    1cfc:	90 e0       	ldi	r25, 0x00	; 0
    1cfe:	82 55       	subi	r24, 0x52	; 82
    1d00:	9f 4f       	sbci	r25, 0xFF	; 255
    1d02:	9a 83       	std	Y+2, r25	; 0x02
    1d04:	89 83       	std	Y+1, r24	; 0x01
    1d06:	89 81       	ldd	r24, Y+1	; 0x01
    1d08:	9a 81       	ldd	r25, Y+2	; 0x02
    1d0a:	fc 01       	movw	r30, r24
    1d0c:	84 91       	lpm	r24, Z
    1d0e:	8b 83       	std	Y+3, r24	; 0x03
    1d10:	8b 81       	ldd	r24, Y+3	; 0x03
    1d12:	8c 83       	std	Y+4, r24	; 0x04
    1d14:	8c 89       	ldd	r24, Y+20	; 0x14
    1d16:	88 2f       	mov	r24, r24
    1d18:	90 e0       	ldi	r25, 0x00	; 0
    1d1a:	86 56       	subi	r24, 0x66	; 102
    1d1c:	9f 4f       	sbci	r25, 0xFF	; 255
    1d1e:	9e 83       	std	Y+6, r25	; 0x06
    1d20:	8d 83       	std	Y+5, r24	; 0x05
    1d22:	8d 81       	ldd	r24, Y+5	; 0x05
    1d24:	9e 81       	ldd	r25, Y+6	; 0x06
    1d26:	fc 01       	movw	r30, r24
    1d28:	84 91       	lpm	r24, Z
    1d2a:	8f 83       	std	Y+7, r24	; 0x07
    1d2c:	8f 81       	ldd	r24, Y+7	; 0x07
    1d2e:	88 87       	std	Y+8, r24	; 0x08
    1d30:	8c 89       	ldd	r24, Y+20	; 0x14
    1d32:	88 2f       	mov	r24, r24
    1d34:	90 e0       	ldi	r25, 0x00	; 0
    1d36:	8a 57       	subi	r24, 0x7A	; 122
    1d38:	9f 4f       	sbci	r25, 0xFF	; 255
    1d3a:	9a 87       	std	Y+10, r25	; 0x0a
    1d3c:	89 87       	std	Y+9, r24	; 0x09
    1d3e:	89 85       	ldd	r24, Y+9	; 0x09
    1d40:	9a 85       	ldd	r25, Y+10	; 0x0a
    1d42:	fc 01       	movw	r30, r24
    1d44:	84 91       	lpm	r24, Z
    1d46:	8b 87       	std	Y+11, r24	; 0x0b
    1d48:	8b 85       	ldd	r24, Y+11	; 0x0b
    1d4a:	8c 87       	std	Y+12, r24	; 0x0c
    1d4c:	8c 85       	ldd	r24, Y+12	; 0x0c
    1d4e:	88 23       	and	r24, r24
    1d50:	09 f4       	brne	.+2      	; 0x1d54 <digitalWrite+0x74>
    1d52:	44 c0       	rjmp	.+136    	; 0x1ddc <digitalWrite+0xfc>
    1d54:	8c 81       	ldd	r24, Y+4	; 0x04
    1d56:	88 23       	and	r24, r24
    1d58:	19 f0       	breq	.+6      	; 0x1d60 <digitalWrite+0x80>
    1d5a:	8c 81       	ldd	r24, Y+4	; 0x04
    1d5c:	0e 94 12 0e 	call	0x1c24	; 0x1c24 <turnOffPWM>
    1d60:	8c 85       	ldd	r24, Y+12	; 0x0c
    1d62:	88 2f       	mov	r24, r24
    1d64:	90 e0       	ldi	r25, 0x00	; 0
    1d66:	88 0f       	add	r24, r24
    1d68:	99 1f       	adc	r25, r25
    1d6a:	8e 58       	subi	r24, 0x8E	; 142
    1d6c:	9f 4f       	sbci	r25, 0xFF	; 255
    1d6e:	9e 87       	std	Y+14, r25	; 0x0e
    1d70:	8d 87       	std	Y+13, r24	; 0x0d
    1d72:	8d 85       	ldd	r24, Y+13	; 0x0d
    1d74:	9e 85       	ldd	r25, Y+14	; 0x0e
    1d76:	fc 01       	movw	r30, r24
    1d78:	25 91       	lpm	r18, Z+
    1d7a:	34 91       	lpm	r19, Z
    1d7c:	cf 01       	movw	r24, r30
    1d7e:	38 8b       	std	Y+16, r19	; 0x10
    1d80:	2f 87       	std	Y+15, r18	; 0x0f
    1d82:	9e 87       	std	Y+14, r25	; 0x0e
    1d84:	8d 87       	std	Y+13, r24	; 0x0d
    1d86:	8f 85       	ldd	r24, Y+15	; 0x0f
    1d88:	98 89       	ldd	r25, Y+16	; 0x10
    1d8a:	9a 8b       	std	Y+18, r25	; 0x12
    1d8c:	89 8b       	std	Y+17, r24	; 0x11
    1d8e:	8f e5       	ldi	r24, 0x5F	; 95
    1d90:	90 e0       	ldi	r25, 0x00	; 0
    1d92:	fc 01       	movw	r30, r24
    1d94:	80 81       	ld	r24, Z
    1d96:	8b 8b       	std	Y+19, r24	; 0x13
    1d98:	f8 94       	cli
    1d9a:	8d 89       	ldd	r24, Y+21	; 0x15
    1d9c:	88 23       	and	r24, r24
    1d9e:	71 f4       	brne	.+28     	; 0x1dbc <digitalWrite+0xdc>
    1da0:	89 89       	ldd	r24, Y+17	; 0x11
    1da2:	9a 89       	ldd	r25, Y+18	; 0x12
    1da4:	fc 01       	movw	r30, r24
    1da6:	80 81       	ld	r24, Z
    1da8:	98 2f       	mov	r25, r24
    1daa:	88 85       	ldd	r24, Y+8	; 0x08
    1dac:	80 95       	com	r24
    1dae:	89 23       	and	r24, r25
    1db0:	28 2f       	mov	r18, r24
    1db2:	89 89       	ldd	r24, Y+17	; 0x11
    1db4:	9a 89       	ldd	r25, Y+18	; 0x12
    1db6:	fc 01       	movw	r30, r24
    1db8:	20 83       	st	Z, r18
    1dba:	0b c0       	rjmp	.+22     	; 0x1dd2 <digitalWrite+0xf2>
    1dbc:	89 89       	ldd	r24, Y+17	; 0x11
    1dbe:	9a 89       	ldd	r25, Y+18	; 0x12
    1dc0:	fc 01       	movw	r30, r24
    1dc2:	90 81       	ld	r25, Z
    1dc4:	88 85       	ldd	r24, Y+8	; 0x08
    1dc6:	29 2f       	mov	r18, r25
    1dc8:	28 2b       	or	r18, r24
    1dca:	89 89       	ldd	r24, Y+17	; 0x11
    1dcc:	9a 89       	ldd	r25, Y+18	; 0x12
    1dce:	fc 01       	movw	r30, r24
    1dd0:	20 83       	st	Z, r18
    1dd2:	8f e5       	ldi	r24, 0x5F	; 95
    1dd4:	90 e0       	ldi	r25, 0x00	; 0
    1dd6:	2b 89       	ldd	r18, Y+19	; 0x13
    1dd8:	fc 01       	movw	r30, r24
    1dda:	20 83       	st	Z, r18
    1ddc:	65 96       	adiw	r28, 0x15	; 21
    1dde:	0f b6       	in	r0, 0x3f	; 63
    1de0:	f8 94       	cli
    1de2:	de bf       	out	0x3e, r29	; 62
    1de4:	0f be       	out	0x3f, r0	; 63
    1de6:	cd bf       	out	0x3d, r28	; 61
    1de8:	df 91       	pop	r29
    1dea:	cf 91       	pop	r28
    1dec:	08 95       	ret

00001dee <digitalRead>:
    1dee:	cf 93       	push	r28
    1df0:	df 93       	push	r29
    1df2:	cd b7       	in	r28, 0x3d	; 61
    1df4:	de b7       	in	r29, 0x3e	; 62
    1df6:	61 97       	sbiw	r28, 0x11	; 17
    1df8:	0f b6       	in	r0, 0x3f	; 63
    1dfa:	f8 94       	cli
    1dfc:	de bf       	out	0x3e, r29	; 62
    1dfe:	0f be       	out	0x3f, r0	; 63
    1e00:	cd bf       	out	0x3d, r28	; 61
    1e02:	89 8b       	std	Y+17, r24	; 0x11
    1e04:	89 89       	ldd	r24, Y+17	; 0x11
    1e06:	88 2f       	mov	r24, r24
    1e08:	90 e0       	ldi	r25, 0x00	; 0
    1e0a:	82 55       	subi	r24, 0x52	; 82
    1e0c:	9f 4f       	sbci	r25, 0xFF	; 255
    1e0e:	9a 83       	std	Y+2, r25	; 0x02
    1e10:	89 83       	std	Y+1, r24	; 0x01
    1e12:	89 81       	ldd	r24, Y+1	; 0x01
    1e14:	9a 81       	ldd	r25, Y+2	; 0x02
    1e16:	fc 01       	movw	r30, r24
    1e18:	84 91       	lpm	r24, Z
    1e1a:	8b 83       	std	Y+3, r24	; 0x03
    1e1c:	8b 81       	ldd	r24, Y+3	; 0x03
    1e1e:	8c 83       	std	Y+4, r24	; 0x04
    1e20:	89 89       	ldd	r24, Y+17	; 0x11
    1e22:	88 2f       	mov	r24, r24
    1e24:	90 e0       	ldi	r25, 0x00	; 0
    1e26:	86 56       	subi	r24, 0x66	; 102
    1e28:	9f 4f       	sbci	r25, 0xFF	; 255
    1e2a:	9e 83       	std	Y+6, r25	; 0x06
    1e2c:	8d 83       	std	Y+5, r24	; 0x05
    1e2e:	8d 81       	ldd	r24, Y+5	; 0x05
    1e30:	9e 81       	ldd	r25, Y+6	; 0x06
    1e32:	fc 01       	movw	r30, r24
    1e34:	84 91       	lpm	r24, Z
    1e36:	8f 83       	std	Y+7, r24	; 0x07
    1e38:	8f 81       	ldd	r24, Y+7	; 0x07
    1e3a:	88 87       	std	Y+8, r24	; 0x08
    1e3c:	89 89       	ldd	r24, Y+17	; 0x11
    1e3e:	88 2f       	mov	r24, r24
    1e40:	90 e0       	ldi	r25, 0x00	; 0
    1e42:	8a 57       	subi	r24, 0x7A	; 122
    1e44:	9f 4f       	sbci	r25, 0xFF	; 255
    1e46:	9a 87       	std	Y+10, r25	; 0x0a
    1e48:	89 87       	std	Y+9, r24	; 0x09
    1e4a:	89 85       	ldd	r24, Y+9	; 0x09
    1e4c:	9a 85       	ldd	r25, Y+10	; 0x0a
    1e4e:	fc 01       	movw	r30, r24
    1e50:	84 91       	lpm	r24, Z
    1e52:	8b 87       	std	Y+11, r24	; 0x0b
    1e54:	8b 85       	ldd	r24, Y+11	; 0x0b
    1e56:	8c 87       	std	Y+12, r24	; 0x0c
    1e58:	8c 85       	ldd	r24, Y+12	; 0x0c
    1e5a:	88 23       	and	r24, r24
    1e5c:	19 f4       	brne	.+6      	; 0x1e64 <digitalRead+0x76>
    1e5e:	80 e0       	ldi	r24, 0x00	; 0
    1e60:	90 e0       	ldi	r25, 0x00	; 0
    1e62:	26 c0       	rjmp	.+76     	; 0x1eb0 <digitalRead+0xc2>
    1e64:	8c 81       	ldd	r24, Y+4	; 0x04
    1e66:	88 23       	and	r24, r24
    1e68:	19 f0       	breq	.+6      	; 0x1e70 <digitalRead+0x82>
    1e6a:	8c 81       	ldd	r24, Y+4	; 0x04
    1e6c:	0e 94 12 0e 	call	0x1c24	; 0x1c24 <turnOffPWM>
    1e70:	8c 85       	ldd	r24, Y+12	; 0x0c
    1e72:	88 2f       	mov	r24, r24
    1e74:	90 e0       	ldi	r25, 0x00	; 0
    1e76:	88 0f       	add	r24, r24
    1e78:	99 1f       	adc	r25, r25
    1e7a:	84 58       	subi	r24, 0x84	; 132
    1e7c:	9f 4f       	sbci	r25, 0xFF	; 255
    1e7e:	9e 87       	std	Y+14, r25	; 0x0e
    1e80:	8d 87       	std	Y+13, r24	; 0x0d
    1e82:	8d 85       	ldd	r24, Y+13	; 0x0d
    1e84:	9e 85       	ldd	r25, Y+14	; 0x0e
    1e86:	fc 01       	movw	r30, r24
    1e88:	25 91       	lpm	r18, Z+
    1e8a:	34 91       	lpm	r19, Z
    1e8c:	cf 01       	movw	r24, r30
    1e8e:	38 8b       	std	Y+16, r19	; 0x10
    1e90:	2f 87       	std	Y+15, r18	; 0x0f
    1e92:	9e 87       	std	Y+14, r25	; 0x0e
    1e94:	8d 87       	std	Y+13, r24	; 0x0d
    1e96:	8f 85       	ldd	r24, Y+15	; 0x0f
    1e98:	98 89       	ldd	r25, Y+16	; 0x10
    1e9a:	fc 01       	movw	r30, r24
    1e9c:	90 81       	ld	r25, Z
    1e9e:	88 85       	ldd	r24, Y+8	; 0x08
    1ea0:	89 23       	and	r24, r25
    1ea2:	88 23       	and	r24, r24
    1ea4:	19 f0       	breq	.+6      	; 0x1eac <digitalRead+0xbe>
    1ea6:	81 e0       	ldi	r24, 0x01	; 1
    1ea8:	90 e0       	ldi	r25, 0x00	; 0
    1eaa:	02 c0       	rjmp	.+4      	; 0x1eb0 <digitalRead+0xc2>
    1eac:	80 e0       	ldi	r24, 0x00	; 0
    1eae:	90 e0       	ldi	r25, 0x00	; 0
    1eb0:	61 96       	adiw	r28, 0x11	; 17
    1eb2:	0f b6       	in	r0, 0x3f	; 63
    1eb4:	f8 94       	cli
    1eb6:	de bf       	out	0x3e, r29	; 62
    1eb8:	0f be       	out	0x3f, r0	; 63
    1eba:	cd bf       	out	0x3d, r28	; 61
    1ebc:	df 91       	pop	r29
    1ebe:	cf 91       	pop	r28
    1ec0:	08 95       	ret

00001ec2 <_Z3maplllll>:
    1ec2:	af 92       	push	r10
    1ec4:	bf 92       	push	r11
    1ec6:	cf 92       	push	r12
    1ec8:	df 92       	push	r13
    1eca:	ef 92       	push	r14
    1ecc:	ff 92       	push	r15
    1ece:	0f 93       	push	r16
    1ed0:	1f 93       	push	r17
    1ed2:	cf 93       	push	r28
    1ed4:	df 93       	push	r29
    1ed6:	cd b7       	in	r28, 0x3d	; 61
    1ed8:	de b7       	in	r29, 0x3e	; 62
    1eda:	64 97       	sbiw	r28, 0x14	; 20
    1edc:	0f b6       	in	r0, 0x3f	; 63
    1ede:	f8 94       	cli
    1ee0:	de bf       	out	0x3e, r29	; 62
    1ee2:	0f be       	out	0x3f, r0	; 63
    1ee4:	cd bf       	out	0x3d, r28	; 61
    1ee6:	69 83       	std	Y+1, r22	; 0x01
    1ee8:	7a 83       	std	Y+2, r23	; 0x02
    1eea:	8b 83       	std	Y+3, r24	; 0x03
    1eec:	9c 83       	std	Y+4, r25	; 0x04
    1eee:	2d 83       	std	Y+5, r18	; 0x05
    1ef0:	3e 83       	std	Y+6, r19	; 0x06
    1ef2:	4f 83       	std	Y+7, r20	; 0x07
    1ef4:	58 87       	std	Y+8, r21	; 0x08
    1ef6:	e9 86       	std	Y+9, r14	; 0x09
    1ef8:	fa 86       	std	Y+10, r15	; 0x0a
    1efa:	0b 87       	std	Y+11, r16	; 0x0b
    1efc:	1c 87       	std	Y+12, r17	; 0x0c
    1efe:	ad 86       	std	Y+13, r10	; 0x0d
    1f00:	be 86       	std	Y+14, r11	; 0x0e
    1f02:	cf 86       	std	Y+15, r12	; 0x0f
    1f04:	d8 8a       	std	Y+16, r13	; 0x10
    1f06:	29 81       	ldd	r18, Y+1	; 0x01
    1f08:	3a 81       	ldd	r19, Y+2	; 0x02
    1f0a:	4b 81       	ldd	r20, Y+3	; 0x03
    1f0c:	5c 81       	ldd	r21, Y+4	; 0x04
    1f0e:	8d 81       	ldd	r24, Y+5	; 0x05
    1f10:	9e 81       	ldd	r25, Y+6	; 0x06
    1f12:	af 81       	ldd	r26, Y+7	; 0x07
    1f14:	b8 85       	ldd	r27, Y+8	; 0x08
    1f16:	28 17       	cp	r18, r24
    1f18:	39 07       	cpc	r19, r25
    1f1a:	4a 07       	cpc	r20, r26
    1f1c:	5b 07       	cpc	r21, r27
    1f1e:	44 f4       	brge	.+16     	; 0x1f30 <_Z3maplllll+0x6e>
    1f20:	8d 81       	ldd	r24, Y+5	; 0x05
    1f22:	9e 81       	ldd	r25, Y+6	; 0x06
    1f24:	af 81       	ldd	r26, Y+7	; 0x07
    1f26:	b8 85       	ldd	r27, Y+8	; 0x08
    1f28:	89 83       	std	Y+1, r24	; 0x01
    1f2a:	9a 83       	std	Y+2, r25	; 0x02
    1f2c:	ab 83       	std	Y+3, r26	; 0x03
    1f2e:	bc 83       	std	Y+4, r27	; 0x04
    1f30:	29 81       	ldd	r18, Y+1	; 0x01
    1f32:	3a 81       	ldd	r19, Y+2	; 0x02
    1f34:	4b 81       	ldd	r20, Y+3	; 0x03
    1f36:	5c 81       	ldd	r21, Y+4	; 0x04
    1f38:	89 85       	ldd	r24, Y+9	; 0x09
    1f3a:	9a 85       	ldd	r25, Y+10	; 0x0a
    1f3c:	ab 85       	ldd	r26, Y+11	; 0x0b
    1f3e:	bc 85       	ldd	r27, Y+12	; 0x0c
    1f40:	82 17       	cp	r24, r18
    1f42:	93 07       	cpc	r25, r19
    1f44:	a4 07       	cpc	r26, r20
    1f46:	b5 07       	cpc	r27, r21
    1f48:	44 f4       	brge	.+16     	; 0x1f5a <_Z3maplllll+0x98>
    1f4a:	89 85       	ldd	r24, Y+9	; 0x09
    1f4c:	9a 85       	ldd	r25, Y+10	; 0x0a
    1f4e:	ab 85       	ldd	r26, Y+11	; 0x0b
    1f50:	bc 85       	ldd	r27, Y+12	; 0x0c
    1f52:	89 83       	std	Y+1, r24	; 0x01
    1f54:	9a 83       	std	Y+2, r25	; 0x02
    1f56:	ab 83       	std	Y+3, r26	; 0x03
    1f58:	bc 83       	std	Y+4, r27	; 0x04
    1f5a:	29 81       	ldd	r18, Y+1	; 0x01
    1f5c:	3a 81       	ldd	r19, Y+2	; 0x02
    1f5e:	4b 81       	ldd	r20, Y+3	; 0x03
    1f60:	5c 81       	ldd	r21, Y+4	; 0x04
    1f62:	8d 81       	ldd	r24, Y+5	; 0x05
    1f64:	9e 81       	ldd	r25, Y+6	; 0x06
    1f66:	af 81       	ldd	r26, Y+7	; 0x07
    1f68:	b8 85       	ldd	r27, Y+8	; 0x08
    1f6a:	79 01       	movw	r14, r18
    1f6c:	8a 01       	movw	r16, r20
    1f6e:	e8 1a       	sub	r14, r24
    1f70:	f9 0a       	sbc	r15, r25
    1f72:	0a 0b       	sbc	r16, r26
    1f74:	1b 0b       	sbc	r17, r27
    1f76:	29 a1       	ldd	r18, Y+33	; 0x21
    1f78:	3a a1       	ldd	r19, Y+34	; 0x22
    1f7a:	4b a1       	ldd	r20, Y+35	; 0x23
    1f7c:	5c a1       	ldd	r21, Y+36	; 0x24
    1f7e:	8d 85       	ldd	r24, Y+13	; 0x0d
    1f80:	9e 85       	ldd	r25, Y+14	; 0x0e
    1f82:	af 85       	ldd	r26, Y+15	; 0x0f
    1f84:	b8 89       	ldd	r27, Y+16	; 0x10
    1f86:	59 01       	movw	r10, r18
    1f88:	6a 01       	movw	r12, r20
    1f8a:	a8 1a       	sub	r10, r24
    1f8c:	b9 0a       	sbc	r11, r25
    1f8e:	ca 0a       	sbc	r12, r26
    1f90:	db 0a       	sbc	r13, r27
    1f92:	d6 01       	movw	r26, r12
    1f94:	c5 01       	movw	r24, r10
    1f96:	a8 01       	movw	r20, r16
    1f98:	97 01       	movw	r18, r14
    1f9a:	bc 01       	movw	r22, r24
    1f9c:	cd 01       	movw	r24, r26
    1f9e:	0e 94 41 14 	call	0x2882	; 0x2882 <__mulsi3>
    1fa2:	7b 01       	movw	r14, r22
    1fa4:	8c 01       	movw	r16, r24
    1fa6:	29 85       	ldd	r18, Y+9	; 0x09
    1fa8:	3a 85       	ldd	r19, Y+10	; 0x0a
    1faa:	4b 85       	ldd	r20, Y+11	; 0x0b
    1fac:	5c 85       	ldd	r21, Y+12	; 0x0c
    1fae:	8d 81       	ldd	r24, Y+5	; 0x05
    1fb0:	9e 81       	ldd	r25, Y+6	; 0x06
    1fb2:	af 81       	ldd	r26, Y+7	; 0x07
    1fb4:	b8 85       	ldd	r27, Y+8	; 0x08
    1fb6:	28 1b       	sub	r18, r24
    1fb8:	39 0b       	sbc	r19, r25
    1fba:	4a 0b       	sbc	r20, r26
    1fbc:	5b 0b       	sbc	r21, r27
    1fbe:	c8 01       	movw	r24, r16
    1fc0:	b7 01       	movw	r22, r14
    1fc2:	0e 94 73 14 	call	0x28e6	; 0x28e6 <__divmodsi4>
    1fc6:	da 01       	movw	r26, r20
    1fc8:	c9 01       	movw	r24, r18
    1fca:	9c 01       	movw	r18, r24
    1fcc:	ad 01       	movw	r20, r26
    1fce:	8d 85       	ldd	r24, Y+13	; 0x0d
    1fd0:	9e 85       	ldd	r25, Y+14	; 0x0e
    1fd2:	af 85       	ldd	r26, Y+15	; 0x0f
    1fd4:	b8 89       	ldd	r27, Y+16	; 0x10
    1fd6:	82 0f       	add	r24, r18
    1fd8:	93 1f       	adc	r25, r19
    1fda:	a4 1f       	adc	r26, r20
    1fdc:	b5 1f       	adc	r27, r21
    1fde:	bc 01       	movw	r22, r24
    1fe0:	cd 01       	movw	r24, r26
    1fe2:	64 96       	adiw	r28, 0x14	; 20
    1fe4:	0f b6       	in	r0, 0x3f	; 63
    1fe6:	f8 94       	cli
    1fe8:	de bf       	out	0x3e, r29	; 62
    1fea:	0f be       	out	0x3f, r0	; 63
    1fec:	cd bf       	out	0x3d, r28	; 61
    1fee:	df 91       	pop	r29
    1ff0:	cf 91       	pop	r28
    1ff2:	1f 91       	pop	r17
    1ff4:	0f 91       	pop	r16
    1ff6:	ff 90       	pop	r15
    1ff8:	ef 90       	pop	r14
    1ffa:	df 90       	pop	r13
    1ffc:	cf 90       	pop	r12
    1ffe:	bf 90       	pop	r11
    2000:	af 90       	pop	r10
    2002:	08 95       	ret

00002004 <__cxa_pure_virtual>:
    2004:	cf 93       	push	r28
    2006:	df 93       	push	r29
    2008:	cd b7       	in	r28, 0x3d	; 61
    200a:	de b7       	in	r29, 0x3e	; 62
    200c:	0e 94 f5 16 	call	0x2dea	; 0x2dea <abort>

00002010 <_ZL17handle_interrupts18timer16_Sequence_tPVjS1_>:
  servos[this->servoIndex].Pin.isActive = false;
  timer16_Sequence_t timer = SERVO_INDEX_TO_TIMER(servoIndex);
  if(isTimerActive(timer) == false) {
    finISR(timer);
  }
}
    2010:	cf 93       	push	r28
    2012:	df 93       	push	r29
    2014:	00 d0       	rcall	.+0      	; 0x2016 <_ZL17handle_interrupts18timer16_Sequence_tPVjS1_+0x6>
    2016:	00 d0       	rcall	.+0      	; 0x2018 <_ZL17handle_interrupts18timer16_Sequence_tPVjS1_+0x8>
    2018:	1f 92       	push	r1
    201a:	cd b7       	in	r28, 0x3d	; 61
    201c:	de b7       	in	r29, 0x3e	; 62
    201e:	89 83       	std	Y+1, r24	; 0x01
    2020:	7b 83       	std	Y+3, r23	; 0x03
    2022:	6a 83       	std	Y+2, r22	; 0x02
    2024:	5d 83       	std	Y+5, r21	; 0x05
    2026:	4c 83       	std	Y+4, r20	; 0x04
    2028:	89 81       	ldd	r24, Y+1	; 0x01
    202a:	88 2f       	mov	r24, r24
    202c:	90 e0       	ldi	r25, 0x00	; 0
    202e:	8e 57       	subi	r24, 0x7E	; 126
    2030:	9d 4f       	sbci	r25, 0xFD	; 253
    2032:	fc 01       	movw	r30, r24
    2034:	80 81       	ld	r24, Z
    2036:	88 1f       	adc	r24, r24
    2038:	88 27       	eor	r24, r24
    203a:	88 1f       	adc	r24, r24
    203c:	88 23       	and	r24, r24
    203e:	31 f0       	breq	.+12     	; 0x204c <_ZL17handle_interrupts18timer16_Sequence_tPVjS1_+0x3c>
    2040:	8a 81       	ldd	r24, Y+2	; 0x02
    2042:	9b 81       	ldd	r25, Y+3	; 0x03
    2044:	fc 01       	movw	r30, r24
    2046:	11 82       	std	Z+1, r1	; 0x01
    2048:	10 82       	st	Z, r1
    204a:	72 c0       	rjmp	.+228    	; 0x2130 <_ZL17handle_interrupts18timer16_Sequence_tPVjS1_+0x120>
    204c:	89 81       	ldd	r24, Y+1	; 0x01
    204e:	28 2f       	mov	r18, r24
    2050:	30 e0       	ldi	r19, 0x00	; 0
    2052:	c9 01       	movw	r24, r18
    2054:	88 0f       	add	r24, r24
    2056:	99 1f       	adc	r25, r25
    2058:	82 0f       	add	r24, r18
    205a:	93 1f       	adc	r25, r19
    205c:	88 0f       	add	r24, r24
    205e:	99 1f       	adc	r25, r25
    2060:	88 0f       	add	r24, r24
    2062:	99 1f       	adc	r25, r25
    2064:	9c 01       	movw	r18, r24
    2066:	89 81       	ldd	r24, Y+1	; 0x01
    2068:	88 2f       	mov	r24, r24
    206a:	90 e0       	ldi	r25, 0x00	; 0
    206c:	8e 57       	subi	r24, 0x7E	; 126
    206e:	9d 4f       	sbci	r25, 0xFD	; 253
    2070:	fc 01       	movw	r30, r24
    2072:	80 81       	ld	r24, Z
    2074:	08 2e       	mov	r0, r24
    2076:	00 0c       	add	r0, r0
    2078:	99 0b       	sbc	r25, r25
    207a:	28 0f       	add	r18, r24
    207c:	39 1f       	adc	r19, r25
    207e:	80 91 83 02 	lds	r24, 0x0283
    2082:	88 2f       	mov	r24, r24
    2084:	90 e0       	ldi	r25, 0x00	; 0
    2086:	28 17       	cp	r18, r24
    2088:	39 07       	cpc	r19, r25
    208a:	4c f5       	brge	.+82     	; 0x20de <_ZL17handle_interrupts18timer16_Sequence_tPVjS1_+0xce>
    208c:	89 81       	ldd	r24, Y+1	; 0x01
    208e:	28 2f       	mov	r18, r24
    2090:	30 e0       	ldi	r19, 0x00	; 0
    2092:	c9 01       	movw	r24, r18
    2094:	88 0f       	add	r24, r24
    2096:	99 1f       	adc	r25, r25
    2098:	82 0f       	add	r24, r18
    209a:	93 1f       	adc	r25, r19
    209c:	88 0f       	add	r24, r24
    209e:	99 1f       	adc	r25, r25
    20a0:	88 0f       	add	r24, r24
    20a2:	99 1f       	adc	r25, r25
    20a4:	9c 01       	movw	r18, r24
    20a6:	89 81       	ldd	r24, Y+1	; 0x01
    20a8:	88 2f       	mov	r24, r24
    20aa:	90 e0       	ldi	r25, 0x00	; 0
    20ac:	8e 57       	subi	r24, 0x7E	; 126
    20ae:	9d 4f       	sbci	r25, 0xFD	; 253
    20b0:	fc 01       	movw	r30, r24
    20b2:	80 81       	ld	r24, Z
    20b4:	08 2e       	mov	r0, r24
    20b6:	00 0c       	add	r0, r0
    20b8:	99 0b       	sbc	r25, r25
    20ba:	28 0f       	add	r18, r24
    20bc:	39 1f       	adc	r19, r25
    20be:	c9 01       	movw	r24, r18
    20c0:	88 0f       	add	r24, r24
    20c2:	99 1f       	adc	r25, r25
    20c4:	82 0f       	add	r24, r18
    20c6:	93 1f       	adc	r25, r19
    20c8:	82 5a       	subi	r24, 0xA2	; 162
    20ca:	9d 4f       	sbci	r25, 0xFD	; 253
    20cc:	fc 01       	movw	r30, r24
    20ce:	80 81       	ld	r24, Z
    20d0:	86 fb       	bst	r24, 6
    20d2:	88 27       	eor	r24, r24
    20d4:	80 f9       	bld	r24, 0
    20d6:	81 30       	cpi	r24, 0x01	; 1
    20d8:	11 f4       	brne	.+4      	; 0x20de <_ZL17handle_interrupts18timer16_Sequence_tPVjS1_+0xce>
    20da:	81 e0       	ldi	r24, 0x01	; 1
    20dc:	01 c0       	rjmp	.+2      	; 0x20e0 <_ZL17handle_interrupts18timer16_Sequence_tPVjS1_+0xd0>
    20de:	80 e0       	ldi	r24, 0x00	; 0
    20e0:	88 23       	and	r24, r24
    20e2:	31 f1       	breq	.+76     	; 0x2130 <_ZL17handle_interrupts18timer16_Sequence_tPVjS1_+0x120>
    20e4:	89 81       	ldd	r24, Y+1	; 0x01
    20e6:	28 2f       	mov	r18, r24
    20e8:	30 e0       	ldi	r19, 0x00	; 0
    20ea:	c9 01       	movw	r24, r18
    20ec:	88 0f       	add	r24, r24
    20ee:	99 1f       	adc	r25, r25
    20f0:	82 0f       	add	r24, r18
    20f2:	93 1f       	adc	r25, r19
    20f4:	88 0f       	add	r24, r24
    20f6:	99 1f       	adc	r25, r25
    20f8:	88 0f       	add	r24, r24
    20fa:	99 1f       	adc	r25, r25
    20fc:	9c 01       	movw	r18, r24
    20fe:	89 81       	ldd	r24, Y+1	; 0x01
    2100:	88 2f       	mov	r24, r24
    2102:	90 e0       	ldi	r25, 0x00	; 0
    2104:	8e 57       	subi	r24, 0x7E	; 126
    2106:	9d 4f       	sbci	r25, 0xFD	; 253
    2108:	fc 01       	movw	r30, r24
    210a:	80 81       	ld	r24, Z
    210c:	08 2e       	mov	r0, r24
    210e:	00 0c       	add	r0, r0
    2110:	99 0b       	sbc	r25, r25
    2112:	28 0f       	add	r18, r24
    2114:	39 1f       	adc	r19, r25
    2116:	c9 01       	movw	r24, r18
    2118:	88 0f       	add	r24, r24
    211a:	99 1f       	adc	r25, r25
    211c:	82 0f       	add	r24, r18
    211e:	93 1f       	adc	r25, r19
    2120:	82 5a       	subi	r24, 0xA2	; 162
    2122:	9d 4f       	sbci	r25, 0xFD	; 253
    2124:	fc 01       	movw	r30, r24
    2126:	80 81       	ld	r24, Z
    2128:	8f 73       	andi	r24, 0x3F	; 63
    212a:	60 e0       	ldi	r22, 0x00	; 0
    212c:	0e 94 70 0e 	call	0x1ce0	; 0x1ce0 <digitalWrite>
    2130:	89 81       	ldd	r24, Y+1	; 0x01
    2132:	88 2f       	mov	r24, r24
    2134:	90 e0       	ldi	r25, 0x00	; 0
    2136:	9c 01       	movw	r18, r24
    2138:	2e 57       	subi	r18, 0x7E	; 126
    213a:	3d 4f       	sbci	r19, 0xFD	; 253
    213c:	f9 01       	movw	r30, r18
    213e:	20 81       	ld	r18, Z
    2140:	2f 5f       	subi	r18, 0xFF	; 255
    2142:	8e 57       	subi	r24, 0x7E	; 126
    2144:	9d 4f       	sbci	r25, 0xFD	; 253
    2146:	fc 01       	movw	r30, r24
    2148:	20 83       	st	Z, r18
    214a:	89 81       	ldd	r24, Y+1	; 0x01
    214c:	28 2f       	mov	r18, r24
    214e:	30 e0       	ldi	r19, 0x00	; 0
    2150:	c9 01       	movw	r24, r18
    2152:	88 0f       	add	r24, r24
    2154:	99 1f       	adc	r25, r25
    2156:	82 0f       	add	r24, r18
    2158:	93 1f       	adc	r25, r19
    215a:	88 0f       	add	r24, r24
    215c:	99 1f       	adc	r25, r25
    215e:	88 0f       	add	r24, r24
    2160:	99 1f       	adc	r25, r25
    2162:	9c 01       	movw	r18, r24
    2164:	89 81       	ldd	r24, Y+1	; 0x01
    2166:	88 2f       	mov	r24, r24
    2168:	90 e0       	ldi	r25, 0x00	; 0
    216a:	8e 57       	subi	r24, 0x7E	; 126
    216c:	9d 4f       	sbci	r25, 0xFD	; 253
    216e:	fc 01       	movw	r30, r24
    2170:	80 81       	ld	r24, Z
    2172:	08 2e       	mov	r0, r24
    2174:	00 0c       	add	r0, r0
    2176:	99 0b       	sbc	r25, r25
    2178:	28 0f       	add	r18, r24
    217a:	39 1f       	adc	r19, r25
    217c:	80 91 83 02 	lds	r24, 0x0283
    2180:	88 2f       	mov	r24, r24
    2182:	90 e0       	ldi	r25, 0x00	; 0
    2184:	28 17       	cp	r18, r24
    2186:	39 07       	cpc	r19, r25
    2188:	5c f4       	brge	.+22     	; 0x21a0 <_ZL17handle_interrupts18timer16_Sequence_tPVjS1_+0x190>
    218a:	89 81       	ldd	r24, Y+1	; 0x01
    218c:	88 2f       	mov	r24, r24
    218e:	90 e0       	ldi	r25, 0x00	; 0
    2190:	8e 57       	subi	r24, 0x7E	; 126
    2192:	9d 4f       	sbci	r25, 0xFD	; 253
    2194:	fc 01       	movw	r30, r24
    2196:	80 81       	ld	r24, Z
    2198:	8c 30       	cpi	r24, 0x0C	; 12
    219a:	14 f4       	brge	.+4      	; 0x21a0 <_ZL17handle_interrupts18timer16_Sequence_tPVjS1_+0x190>
    219c:	81 e0       	ldi	r24, 0x01	; 1
    219e:	01 c0       	rjmp	.+2      	; 0x21a2 <_ZL17handle_interrupts18timer16_Sequence_tPVjS1_+0x192>
    21a0:	80 e0       	ldi	r24, 0x00	; 0
    21a2:	88 23       	and	r24, r24
    21a4:	09 f4       	brne	.+2      	; 0x21a8 <_ZL17handle_interrupts18timer16_Sequence_tPVjS1_+0x198>
    21a6:	7f c0       	rjmp	.+254    	; 0x22a6 <_ZL17handle_interrupts18timer16_Sequence_tPVjS1_+0x296>
    21a8:	8a 81       	ldd	r24, Y+2	; 0x02
    21aa:	9b 81       	ldd	r25, Y+3	; 0x03
    21ac:	fc 01       	movw	r30, r24
    21ae:	40 81       	ld	r20, Z
    21b0:	51 81       	ldd	r21, Z+1	; 0x01
    21b2:	89 81       	ldd	r24, Y+1	; 0x01
    21b4:	28 2f       	mov	r18, r24
    21b6:	30 e0       	ldi	r19, 0x00	; 0
    21b8:	c9 01       	movw	r24, r18
    21ba:	88 0f       	add	r24, r24
    21bc:	99 1f       	adc	r25, r25
    21be:	82 0f       	add	r24, r18
    21c0:	93 1f       	adc	r25, r19
    21c2:	88 0f       	add	r24, r24
    21c4:	99 1f       	adc	r25, r25
    21c6:	88 0f       	add	r24, r24
    21c8:	99 1f       	adc	r25, r25
    21ca:	9c 01       	movw	r18, r24
    21cc:	89 81       	ldd	r24, Y+1	; 0x01
    21ce:	88 2f       	mov	r24, r24
    21d0:	90 e0       	ldi	r25, 0x00	; 0
    21d2:	8e 57       	subi	r24, 0x7E	; 126
    21d4:	9d 4f       	sbci	r25, 0xFD	; 253
    21d6:	fc 01       	movw	r30, r24
    21d8:	80 81       	ld	r24, Z
    21da:	08 2e       	mov	r0, r24
    21dc:	00 0c       	add	r0, r0
    21de:	99 0b       	sbc	r25, r25
    21e0:	28 0f       	add	r18, r24
    21e2:	39 1f       	adc	r19, r25
    21e4:	c9 01       	movw	r24, r18
    21e6:	88 0f       	add	r24, r24
    21e8:	99 1f       	adc	r25, r25
    21ea:	82 0f       	add	r24, r18
    21ec:	93 1f       	adc	r25, r19
    21ee:	81 5a       	subi	r24, 0xA1	; 161
    21f0:	9d 4f       	sbci	r25, 0xFD	; 253
    21f2:	fc 01       	movw	r30, r24
    21f4:	80 81       	ld	r24, Z
    21f6:	91 81       	ldd	r25, Z+1	; 0x01
    21f8:	9a 01       	movw	r18, r20
    21fa:	28 0f       	add	r18, r24
    21fc:	39 1f       	adc	r19, r25
    21fe:	8c 81       	ldd	r24, Y+4	; 0x04
    2200:	9d 81       	ldd	r25, Y+5	; 0x05
    2202:	fc 01       	movw	r30, r24
    2204:	31 83       	std	Z+1, r19	; 0x01
    2206:	20 83       	st	Z, r18
    2208:	89 81       	ldd	r24, Y+1	; 0x01
    220a:	28 2f       	mov	r18, r24
    220c:	30 e0       	ldi	r19, 0x00	; 0
    220e:	c9 01       	movw	r24, r18
    2210:	88 0f       	add	r24, r24
    2212:	99 1f       	adc	r25, r25
    2214:	82 0f       	add	r24, r18
    2216:	93 1f       	adc	r25, r19
    2218:	88 0f       	add	r24, r24
    221a:	99 1f       	adc	r25, r25
    221c:	88 0f       	add	r24, r24
    221e:	99 1f       	adc	r25, r25
    2220:	9c 01       	movw	r18, r24
    2222:	89 81       	ldd	r24, Y+1	; 0x01
    2224:	88 2f       	mov	r24, r24
    2226:	90 e0       	ldi	r25, 0x00	; 0
    2228:	8e 57       	subi	r24, 0x7E	; 126
    222a:	9d 4f       	sbci	r25, 0xFD	; 253
    222c:	fc 01       	movw	r30, r24
    222e:	80 81       	ld	r24, Z
    2230:	08 2e       	mov	r0, r24
    2232:	00 0c       	add	r0, r0
    2234:	99 0b       	sbc	r25, r25
    2236:	28 0f       	add	r18, r24
    2238:	39 1f       	adc	r19, r25
    223a:	c9 01       	movw	r24, r18
    223c:	88 0f       	add	r24, r24
    223e:	99 1f       	adc	r25, r25
    2240:	82 0f       	add	r24, r18
    2242:	93 1f       	adc	r25, r19
    2244:	82 5a       	subi	r24, 0xA2	; 162
    2246:	9d 4f       	sbci	r25, 0xFD	; 253
    2248:	fc 01       	movw	r30, r24
    224a:	80 81       	ld	r24, Z
    224c:	86 fb       	bst	r24, 6
    224e:	88 27       	eor	r24, r24
    2250:	80 f9       	bld	r24, 0
    2252:	88 23       	and	r24, r24
    2254:	09 f4       	brne	.+2      	; 0x2258 <_ZL17handle_interrupts18timer16_Sequence_tPVjS1_+0x248>
    2256:	51 c0       	rjmp	.+162    	; 0x22fa <_ZL17handle_interrupts18timer16_Sequence_tPVjS1_+0x2ea>
    2258:	89 81       	ldd	r24, Y+1	; 0x01
    225a:	28 2f       	mov	r18, r24
    225c:	30 e0       	ldi	r19, 0x00	; 0
    225e:	c9 01       	movw	r24, r18
    2260:	88 0f       	add	r24, r24
    2262:	99 1f       	adc	r25, r25
    2264:	82 0f       	add	r24, r18
    2266:	93 1f       	adc	r25, r19
    2268:	88 0f       	add	r24, r24
    226a:	99 1f       	adc	r25, r25
    226c:	88 0f       	add	r24, r24
    226e:	99 1f       	adc	r25, r25
    2270:	9c 01       	movw	r18, r24
    2272:	89 81       	ldd	r24, Y+1	; 0x01
    2274:	88 2f       	mov	r24, r24
    2276:	90 e0       	ldi	r25, 0x00	; 0
    2278:	8e 57       	subi	r24, 0x7E	; 126
    227a:	9d 4f       	sbci	r25, 0xFD	; 253
    227c:	fc 01       	movw	r30, r24
    227e:	80 81       	ld	r24, Z
    2280:	08 2e       	mov	r0, r24
    2282:	00 0c       	add	r0, r0
    2284:	99 0b       	sbc	r25, r25
    2286:	28 0f       	add	r18, r24
    2288:	39 1f       	adc	r19, r25
    228a:	c9 01       	movw	r24, r18
    228c:	88 0f       	add	r24, r24
    228e:	99 1f       	adc	r25, r25
    2290:	82 0f       	add	r24, r18
    2292:	93 1f       	adc	r25, r19
    2294:	82 5a       	subi	r24, 0xA2	; 162
    2296:	9d 4f       	sbci	r25, 0xFD	; 253
    2298:	fc 01       	movw	r30, r24
    229a:	80 81       	ld	r24, Z
    229c:	8f 73       	andi	r24, 0x3F	; 63
    229e:	61 e0       	ldi	r22, 0x01	; 1
    22a0:	0e 94 70 0e 	call	0x1ce0	; 0x1ce0 <digitalWrite>
    22a4:	2a c0       	rjmp	.+84     	; 0x22fa <_ZL17handle_interrupts18timer16_Sequence_tPVjS1_+0x2ea>
    22a6:	8a 81       	ldd	r24, Y+2	; 0x02
    22a8:	9b 81       	ldd	r25, Y+3	; 0x03
    22aa:	fc 01       	movw	r30, r24
    22ac:	80 81       	ld	r24, Z
    22ae:	91 81       	ldd	r25, Z+1	; 0x01
    22b0:	04 96       	adiw	r24, 0x04	; 4
    22b2:	21 e0       	ldi	r18, 0x01	; 1
    22b4:	80 34       	cpi	r24, 0x40	; 64
    22b6:	9c 49       	sbci	r25, 0x9C	; 156
    22b8:	08 f0       	brcs	.+2      	; 0x22bc <_ZL17handle_interrupts18timer16_Sequence_tPVjS1_+0x2ac>
    22ba:	20 e0       	ldi	r18, 0x00	; 0
    22bc:	22 23       	and	r18, r18
    22be:	41 f0       	breq	.+16     	; 0x22d0 <_ZL17handle_interrupts18timer16_Sequence_tPVjS1_+0x2c0>
    22c0:	8c 81       	ldd	r24, Y+4	; 0x04
    22c2:	9d 81       	ldd	r25, Y+5	; 0x05
    22c4:	20 e4       	ldi	r18, 0x40	; 64
    22c6:	3c e9       	ldi	r19, 0x9C	; 156
    22c8:	fc 01       	movw	r30, r24
    22ca:	31 83       	std	Z+1, r19	; 0x01
    22cc:	20 83       	st	Z, r18
    22ce:	0d c0       	rjmp	.+26     	; 0x22ea <_ZL17handle_interrupts18timer16_Sequence_tPVjS1_+0x2da>
    22d0:	8a 81       	ldd	r24, Y+2	; 0x02
    22d2:	9b 81       	ldd	r25, Y+3	; 0x03
    22d4:	fc 01       	movw	r30, r24
    22d6:	80 81       	ld	r24, Z
    22d8:	91 81       	ldd	r25, Z+1	; 0x01
    22da:	9c 01       	movw	r18, r24
    22dc:	2c 5f       	subi	r18, 0xFC	; 252
    22de:	3f 4f       	sbci	r19, 0xFF	; 255
    22e0:	8c 81       	ldd	r24, Y+4	; 0x04
    22e2:	9d 81       	ldd	r25, Y+5	; 0x05
    22e4:	fc 01       	movw	r30, r24
    22e6:	31 83       	std	Z+1, r19	; 0x01
    22e8:	20 83       	st	Z, r18
    22ea:	89 81       	ldd	r24, Y+1	; 0x01
    22ec:	88 2f       	mov	r24, r24
    22ee:	90 e0       	ldi	r25, 0x00	; 0
    22f0:	8e 57       	subi	r24, 0x7E	; 126
    22f2:	9d 4f       	sbci	r25, 0xFD	; 253
    22f4:	2f ef       	ldi	r18, 0xFF	; 255
    22f6:	fc 01       	movw	r30, r24
    22f8:	20 83       	st	Z, r18
    22fa:	0f 90       	pop	r0
    22fc:	0f 90       	pop	r0
    22fe:	0f 90       	pop	r0
    2300:	0f 90       	pop	r0
    2302:	0f 90       	pop	r0
    2304:	df 91       	pop	r29
    2306:	cf 91       	pop	r28
    2308:	08 95       	ret

0000230a <__vector_11>:
    230a:	1f 92       	push	r1
    230c:	0f 92       	push	r0
    230e:	00 90 5f 00 	lds	r0, 0x005F
    2312:	0f 92       	push	r0
    2314:	11 24       	eor	r1, r1
    2316:	2f 93       	push	r18
    2318:	3f 93       	push	r19
    231a:	4f 93       	push	r20
    231c:	5f 93       	push	r21
    231e:	6f 93       	push	r22
    2320:	7f 93       	push	r23
    2322:	8f 93       	push	r24
    2324:	9f 93       	push	r25
    2326:	af 93       	push	r26
    2328:	bf 93       	push	r27
    232a:	ef 93       	push	r30
    232c:	ff 93       	push	r31
    232e:	cf 93       	push	r28
    2330:	df 93       	push	r29
    2332:	cd b7       	in	r28, 0x3d	; 61
    2334:	de b7       	in	r29, 0x3e	; 62
    2336:	48 e8       	ldi	r20, 0x88	; 136
    2338:	50 e0       	ldi	r21, 0x00	; 0
    233a:	64 e8       	ldi	r22, 0x84	; 132
    233c:	70 e0       	ldi	r23, 0x00	; 0
    233e:	80 e0       	ldi	r24, 0x00	; 0
    2340:	0e 94 08 10 	call	0x2010	; 0x2010 <_ZL17handle_interrupts18timer16_Sequence_tPVjS1_>
    2344:	df 91       	pop	r29
    2346:	cf 91       	pop	r28
    2348:	ff 91       	pop	r31
    234a:	ef 91       	pop	r30
    234c:	bf 91       	pop	r27
    234e:	af 91       	pop	r26
    2350:	9f 91       	pop	r25
    2352:	8f 91       	pop	r24
    2354:	7f 91       	pop	r23
    2356:	6f 91       	pop	r22
    2358:	5f 91       	pop	r21
    235a:	4f 91       	pop	r20
    235c:	3f 91       	pop	r19
    235e:	2f 91       	pop	r18
    2360:	0f 90       	pop	r0
    2362:	00 92 5f 00 	sts	0x005F, r0
    2366:	0f 90       	pop	r0
    2368:	1f 90       	pop	r1
    236a:	18 95       	reti

0000236c <_ZL7initISR18timer16_Sequence_t>:
    236c:	cf 93       	push	r28
    236e:	df 93       	push	r29
    2370:	1f 92       	push	r1
    2372:	cd b7       	in	r28, 0x3d	; 61
    2374:	de b7       	in	r29, 0x3e	; 62
    2376:	89 83       	std	Y+1, r24	; 0x01
    2378:	89 81       	ldd	r24, Y+1	; 0x01
    237a:	88 23       	and	r24, r24
    237c:	01 f5       	brne	.+64     	; 0x23be <_ZL7initISR18timer16_Sequence_t+0x52>
    237e:	80 e8       	ldi	r24, 0x80	; 128
    2380:	90 e0       	ldi	r25, 0x00	; 0
    2382:	fc 01       	movw	r30, r24
    2384:	10 82       	st	Z, r1
    2386:	81 e8       	ldi	r24, 0x81	; 129
    2388:	90 e0       	ldi	r25, 0x00	; 0
    238a:	22 e0       	ldi	r18, 0x02	; 2
    238c:	fc 01       	movw	r30, r24
    238e:	20 83       	st	Z, r18
    2390:	84 e8       	ldi	r24, 0x84	; 132
    2392:	90 e0       	ldi	r25, 0x00	; 0
    2394:	fc 01       	movw	r30, r24
    2396:	11 82       	std	Z+1, r1	; 0x01
    2398:	10 82       	st	Z, r1
    239a:	86 e3       	ldi	r24, 0x36	; 54
    239c:	90 e0       	ldi	r25, 0x00	; 0
    239e:	26 e3       	ldi	r18, 0x36	; 54
    23a0:	30 e0       	ldi	r19, 0x00	; 0
    23a2:	f9 01       	movw	r30, r18
    23a4:	20 81       	ld	r18, Z
    23a6:	22 60       	ori	r18, 0x02	; 2
    23a8:	fc 01       	movw	r30, r24
    23aa:	20 83       	st	Z, r18
    23ac:	8f e6       	ldi	r24, 0x6F	; 111
    23ae:	90 e0       	ldi	r25, 0x00	; 0
    23b0:	2f e6       	ldi	r18, 0x6F	; 111
    23b2:	30 e0       	ldi	r19, 0x00	; 0
    23b4:	f9 01       	movw	r30, r18
    23b6:	20 81       	ld	r18, Z
    23b8:	22 60       	ori	r18, 0x02	; 2
    23ba:	fc 01       	movw	r30, r24
    23bc:	20 83       	st	Z, r18
    23be:	0f 90       	pop	r0
    23c0:	df 91       	pop	r29
    23c2:	cf 91       	pop	r28
    23c4:	08 95       	ret

000023c6 <_ZL13isTimerActive18timer16_Sequence_t>:
    23c6:	cf 93       	push	r28
    23c8:	df 93       	push	r29
    23ca:	00 d0       	rcall	.+0      	; 0x23cc <_ZL13isTimerActive18timer16_Sequence_t+0x6>
    23cc:	cd b7       	in	r28, 0x3d	; 61
    23ce:	de b7       	in	r29, 0x3e	; 62
    23d0:	8a 83       	std	Y+2, r24	; 0x02
    23d2:	19 82       	std	Y+1, r1	; 0x01
    23d4:	25 c0       	rjmp	.+74     	; 0x2420 <_ZL13isTimerActive18timer16_Sequence_t+0x5a>
    23d6:	8a 81       	ldd	r24, Y+2	; 0x02
    23d8:	28 2f       	mov	r18, r24
    23da:	30 e0       	ldi	r19, 0x00	; 0
    23dc:	c9 01       	movw	r24, r18
    23de:	88 0f       	add	r24, r24
    23e0:	99 1f       	adc	r25, r25
    23e2:	82 0f       	add	r24, r18
    23e4:	93 1f       	adc	r25, r19
    23e6:	88 0f       	add	r24, r24
    23e8:	99 1f       	adc	r25, r25
    23ea:	88 0f       	add	r24, r24
    23ec:	99 1f       	adc	r25, r25
    23ee:	9c 01       	movw	r18, r24
    23f0:	89 81       	ldd	r24, Y+1	; 0x01
    23f2:	88 2f       	mov	r24, r24
    23f4:	90 e0       	ldi	r25, 0x00	; 0
    23f6:	28 0f       	add	r18, r24
    23f8:	39 1f       	adc	r19, r25
    23fa:	c9 01       	movw	r24, r18
    23fc:	88 0f       	add	r24, r24
    23fe:	99 1f       	adc	r25, r25
    2400:	82 0f       	add	r24, r18
    2402:	93 1f       	adc	r25, r19
    2404:	82 5a       	subi	r24, 0xA2	; 162
    2406:	9d 4f       	sbci	r25, 0xFD	; 253
    2408:	fc 01       	movw	r30, r24
    240a:	80 81       	ld	r24, Z
    240c:	86 fb       	bst	r24, 6
    240e:	88 27       	eor	r24, r24
    2410:	80 f9       	bld	r24, 0
    2412:	81 30       	cpi	r24, 0x01	; 1
    2414:	11 f4       	brne	.+4      	; 0x241a <_ZL13isTimerActive18timer16_Sequence_t+0x54>
    2416:	81 e0       	ldi	r24, 0x01	; 1
    2418:	07 c0       	rjmp	.+14     	; 0x2428 <_ZL13isTimerActive18timer16_Sequence_t+0x62>
    241a:	89 81       	ldd	r24, Y+1	; 0x01
    241c:	8f 5f       	subi	r24, 0xFF	; 255
    241e:	89 83       	std	Y+1, r24	; 0x01
    2420:	89 81       	ldd	r24, Y+1	; 0x01
    2422:	8c 30       	cpi	r24, 0x0C	; 12
    2424:	c0 f2       	brcs	.-80     	; 0x23d6 <_ZL13isTimerActive18timer16_Sequence_t+0x10>
    2426:	80 e0       	ldi	r24, 0x00	; 0
    2428:	0f 90       	pop	r0
    242a:	0f 90       	pop	r0
    242c:	df 91       	pop	r29
    242e:	cf 91       	pop	r28
    2430:	08 95       	ret

00002432 <_ZN5ServoC1Ev>:
    2432:	cf 93       	push	r28
    2434:	df 93       	push	r29
    2436:	00 d0       	rcall	.+0      	; 0x2438 <_ZN5ServoC1Ev+0x6>
    2438:	cd b7       	in	r28, 0x3d	; 61
    243a:	de b7       	in	r29, 0x3e	; 62
    243c:	9a 83       	std	Y+2, r25	; 0x02
    243e:	89 83       	std	Y+1, r24	; 0x01
    2440:	80 91 83 02 	lds	r24, 0x0283
    2444:	8c 30       	cpi	r24, 0x0C	; 12
    2446:	e8 f4       	brcc	.+58     	; 0x2482 <_ZN5ServoC1Ev+0x50>
    2448:	20 91 83 02 	lds	r18, 0x0283
    244c:	81 e0       	ldi	r24, 0x01	; 1
    244e:	82 0f       	add	r24, r18
    2450:	80 93 83 02 	sts	0x0283, r24
    2454:	89 81       	ldd	r24, Y+1	; 0x01
    2456:	9a 81       	ldd	r25, Y+2	; 0x02
    2458:	fc 01       	movw	r30, r24
    245a:	20 83       	st	Z, r18
    245c:	89 81       	ldd	r24, Y+1	; 0x01
    245e:	9a 81       	ldd	r25, Y+2	; 0x02
    2460:	fc 01       	movw	r30, r24
    2462:	80 81       	ld	r24, Z
    2464:	28 2f       	mov	r18, r24
    2466:	30 e0       	ldi	r19, 0x00	; 0
    2468:	c9 01       	movw	r24, r18
    246a:	88 0f       	add	r24, r24
    246c:	99 1f       	adc	r25, r25
    246e:	82 0f       	add	r24, r18
    2470:	93 1f       	adc	r25, r19
    2472:	81 5a       	subi	r24, 0xA1	; 161
    2474:	9d 4f       	sbci	r25, 0xFD	; 253
    2476:	28 eb       	ldi	r18, 0xB8	; 184
    2478:	3b e0       	ldi	r19, 0x0B	; 11
    247a:	fc 01       	movw	r30, r24
    247c:	31 83       	std	Z+1, r19	; 0x01
    247e:	20 83       	st	Z, r18
    2480:	05 c0       	rjmp	.+10     	; 0x248c <_ZN5ServoC1Ev+0x5a>
    2482:	89 81       	ldd	r24, Y+1	; 0x01
    2484:	9a 81       	ldd	r25, Y+2	; 0x02
    2486:	2f ef       	ldi	r18, 0xFF	; 255
    2488:	fc 01       	movw	r30, r24
    248a:	20 83       	st	Z, r18
    248c:	0f 90       	pop	r0
    248e:	0f 90       	pop	r0
    2490:	df 91       	pop	r29
    2492:	cf 91       	pop	r28
    2494:	08 95       	ret

00002496 <_ZN5Servo6attachEi>:
    2496:	cf 93       	push	r28
    2498:	df 93       	push	r29
    249a:	00 d0       	rcall	.+0      	; 0x249c <_ZN5Servo6attachEi+0x6>
    249c:	00 d0       	rcall	.+0      	; 0x249e <_ZN5Servo6attachEi+0x8>
    249e:	cd b7       	in	r28, 0x3d	; 61
    24a0:	de b7       	in	r29, 0x3e	; 62
    24a2:	9a 83       	std	Y+2, r25	; 0x02
    24a4:	89 83       	std	Y+1, r24	; 0x01
    24a6:	7c 83       	std	Y+4, r23	; 0x04
    24a8:	6b 83       	std	Y+3, r22	; 0x03
    24aa:	6b 81       	ldd	r22, Y+3	; 0x03
    24ac:	7c 81       	ldd	r23, Y+4	; 0x04
    24ae:	89 81       	ldd	r24, Y+1	; 0x01
    24b0:	9a 81       	ldd	r25, Y+2	; 0x02
    24b2:	20 e6       	ldi	r18, 0x60	; 96
    24b4:	39 e0       	ldi	r19, 0x09	; 9
    24b6:	40 e2       	ldi	r20, 0x20	; 32
    24b8:	52 e0       	ldi	r21, 0x02	; 2
    24ba:	0e 94 66 12 	call	0x24cc	; 0x24cc <_ZN5Servo6attachEiii>
    24be:	0f 90       	pop	r0
    24c0:	0f 90       	pop	r0
    24c2:	0f 90       	pop	r0
    24c4:	0f 90       	pop	r0
    24c6:	df 91       	pop	r29
    24c8:	cf 91       	pop	r28
    24ca:	08 95       	ret

000024cc <_ZN5Servo6attachEiii>:
    24cc:	cf 93       	push	r28
    24ce:	df 93       	push	r29
    24d0:	cd b7       	in	r28, 0x3d	; 61
    24d2:	de b7       	in	r29, 0x3e	; 62
    24d4:	29 97       	sbiw	r28, 0x09	; 9
    24d6:	0f b6       	in	r0, 0x3f	; 63
    24d8:	f8 94       	cli
    24da:	de bf       	out	0x3e, r29	; 62
    24dc:	0f be       	out	0x3f, r0	; 63
    24de:	cd bf       	out	0x3d, r28	; 61
    24e0:	9b 83       	std	Y+3, r25	; 0x03
    24e2:	8a 83       	std	Y+2, r24	; 0x02
    24e4:	7d 83       	std	Y+5, r23	; 0x05
    24e6:	6c 83       	std	Y+4, r22	; 0x04
    24e8:	5f 83       	std	Y+7, r21	; 0x07
    24ea:	4e 83       	std	Y+6, r20	; 0x06
    24ec:	39 87       	std	Y+9, r19	; 0x09
    24ee:	28 87       	std	Y+8, r18	; 0x08
    24f0:	8a 81       	ldd	r24, Y+2	; 0x02
    24f2:	9b 81       	ldd	r25, Y+3	; 0x03
    24f4:	fc 01       	movw	r30, r24
    24f6:	80 81       	ld	r24, Z
    24f8:	8c 30       	cpi	r24, 0x0C	; 12
    24fa:	08 f0       	brcs	.+2      	; 0x24fe <_ZN5Servo6attachEiii+0x32>
    24fc:	6d c0       	rjmp	.+218    	; 0x25d8 <_ZN5Servo6attachEiii+0x10c>
    24fe:	8c 81       	ldd	r24, Y+4	; 0x04
    2500:	61 e0       	ldi	r22, 0x01	; 1
    2502:	0e 94 49 0d 	call	0x1a92	; 0x1a92 <pinMode>
    2506:	8a 81       	ldd	r24, Y+2	; 0x02
    2508:	9b 81       	ldd	r25, Y+3	; 0x03
    250a:	fc 01       	movw	r30, r24
    250c:	80 81       	ld	r24, Z
    250e:	28 2f       	mov	r18, r24
    2510:	30 e0       	ldi	r19, 0x00	; 0
    2512:	8c 81       	ldd	r24, Y+4	; 0x04
    2514:	48 2f       	mov	r20, r24
    2516:	4f 73       	andi	r20, 0x3F	; 63
    2518:	c9 01       	movw	r24, r18
    251a:	88 0f       	add	r24, r24
    251c:	99 1f       	adc	r25, r25
    251e:	82 0f       	add	r24, r18
    2520:	93 1f       	adc	r25, r19
    2522:	82 5a       	subi	r24, 0xA2	; 162
    2524:	9d 4f       	sbci	r25, 0xFD	; 253
    2526:	24 2f       	mov	r18, r20
    2528:	2f 73       	andi	r18, 0x3F	; 63
    252a:	fc 01       	movw	r30, r24
    252c:	30 81       	ld	r19, Z
    252e:	30 7c       	andi	r19, 0xC0	; 192
    2530:	23 2b       	or	r18, r19
    2532:	fc 01       	movw	r30, r24
    2534:	20 83       	st	Z, r18
    2536:	20 e2       	ldi	r18, 0x20	; 32
    2538:	32 e0       	ldi	r19, 0x02	; 2
    253a:	8e 81       	ldd	r24, Y+6	; 0x06
    253c:	9f 81       	ldd	r25, Y+7	; 0x07
    253e:	a9 01       	movw	r20, r18
    2540:	48 1b       	sub	r20, r24
    2542:	59 0b       	sbc	r21, r25
    2544:	ca 01       	movw	r24, r20
    2546:	99 23       	and	r25, r25
    2548:	0c f4       	brge	.+2      	; 0x254c <_ZN5Servo6attachEiii+0x80>
    254a:	03 96       	adiw	r24, 0x03	; 3
    254c:	95 95       	asr	r25
    254e:	87 95       	ror	r24
    2550:	95 95       	asr	r25
    2552:	87 95       	ror	r24
    2554:	28 2f       	mov	r18, r24
    2556:	8a 81       	ldd	r24, Y+2	; 0x02
    2558:	9b 81       	ldd	r25, Y+3	; 0x03
    255a:	fc 01       	movw	r30, r24
    255c:	21 83       	std	Z+1, r18	; 0x01
    255e:	20 e6       	ldi	r18, 0x60	; 96
    2560:	39 e0       	ldi	r19, 0x09	; 9
    2562:	88 85       	ldd	r24, Y+8	; 0x08
    2564:	99 85       	ldd	r25, Y+9	; 0x09
    2566:	a9 01       	movw	r20, r18
    2568:	48 1b       	sub	r20, r24
    256a:	59 0b       	sbc	r21, r25
    256c:	ca 01       	movw	r24, r20
    256e:	99 23       	and	r25, r25
    2570:	0c f4       	brge	.+2      	; 0x2574 <_ZN5Servo6attachEiii+0xa8>
    2572:	03 96       	adiw	r24, 0x03	; 3
    2574:	95 95       	asr	r25
    2576:	87 95       	ror	r24
    2578:	95 95       	asr	r25
    257a:	87 95       	ror	r24
    257c:	28 2f       	mov	r18, r24
    257e:	8a 81       	ldd	r24, Y+2	; 0x02
    2580:	9b 81       	ldd	r25, Y+3	; 0x03
    2582:	fc 01       	movw	r30, r24
    2584:	22 83       	std	Z+2, r18	; 0x02
    2586:	8a 81       	ldd	r24, Y+2	; 0x02
    2588:	9b 81       	ldd	r25, Y+3	; 0x03
    258a:	fc 01       	movw	r30, r24
    258c:	90 81       	ld	r25, Z
    258e:	8b ea       	ldi	r24, 0xAB	; 171
    2590:	98 9f       	mul	r25, r24
    2592:	81 2d       	mov	r24, r1
    2594:	11 24       	eor	r1, r1
    2596:	86 95       	lsr	r24
    2598:	86 95       	lsr	r24
    259a:	86 95       	lsr	r24
    259c:	89 83       	std	Y+1, r24	; 0x01
    259e:	89 81       	ldd	r24, Y+1	; 0x01
    25a0:	0e 94 e3 11 	call	0x23c6	; 0x23c6 <_ZL13isTimerActive18timer16_Sequence_t>
    25a4:	98 2f       	mov	r25, r24
    25a6:	81 e0       	ldi	r24, 0x01	; 1
    25a8:	89 27       	eor	r24, r25
    25aa:	88 23       	and	r24, r24
    25ac:	19 f0       	breq	.+6      	; 0x25b4 <_ZN5Servo6attachEiii+0xe8>
    25ae:	89 81       	ldd	r24, Y+1	; 0x01
    25b0:	0e 94 b6 11 	call	0x236c	; 0x236c <_ZL7initISR18timer16_Sequence_t>
    25b4:	8a 81       	ldd	r24, Y+2	; 0x02
    25b6:	9b 81       	ldd	r25, Y+3	; 0x03
    25b8:	fc 01       	movw	r30, r24
    25ba:	80 81       	ld	r24, Z
    25bc:	28 2f       	mov	r18, r24
    25be:	30 e0       	ldi	r19, 0x00	; 0
    25c0:	c9 01       	movw	r24, r18
    25c2:	88 0f       	add	r24, r24
    25c4:	99 1f       	adc	r25, r25
    25c6:	82 0f       	add	r24, r18
    25c8:	93 1f       	adc	r25, r19
    25ca:	82 5a       	subi	r24, 0xA2	; 162
    25cc:	9d 4f       	sbci	r25, 0xFD	; 253
    25ce:	fc 01       	movw	r30, r24
    25d0:	20 81       	ld	r18, Z
    25d2:	20 64       	ori	r18, 0x40	; 64
    25d4:	fc 01       	movw	r30, r24
    25d6:	20 83       	st	Z, r18
    25d8:	8a 81       	ldd	r24, Y+2	; 0x02
    25da:	9b 81       	ldd	r25, Y+3	; 0x03
    25dc:	fc 01       	movw	r30, r24
    25de:	80 81       	ld	r24, Z
    25e0:	29 96       	adiw	r28, 0x09	; 9
    25e2:	0f b6       	in	r0, 0x3f	; 63
    25e4:	f8 94       	cli
    25e6:	de bf       	out	0x3e, r29	; 62
    25e8:	0f be       	out	0x3f, r0	; 63
    25ea:	cd bf       	out	0x3d, r28	; 61
    25ec:	df 91       	pop	r29
    25ee:	cf 91       	pop	r28
    25f0:	08 95       	ret

000025f2 <_ZN5Servo5writeEi>:

void Servo::write(int value)
{
    25f2:	6f 92       	push	r6
    25f4:	7f 92       	push	r7
    25f6:	8f 92       	push	r8
    25f8:	9f 92       	push	r9
    25fa:	af 92       	push	r10
    25fc:	bf 92       	push	r11
    25fe:	cf 92       	push	r12
    2600:	df 92       	push	r13
    2602:	ef 92       	push	r14
    2604:	ff 92       	push	r15
    2606:	0f 93       	push	r16
    2608:	1f 93       	push	r17
    260a:	cf 93       	push	r28
    260c:	df 93       	push	r29
    260e:	00 d0       	rcall	.+0      	; 0x2610 <_ZN5Servo5writeEi+0x1e>
    2610:	00 d0       	rcall	.+0      	; 0x2612 <_ZN5Servo5writeEi+0x20>
    2612:	cd b7       	in	r28, 0x3d	; 61
    2614:	de b7       	in	r29, 0x3e	; 62
    2616:	9a 83       	std	Y+2, r25	; 0x02
    2618:	89 83       	std	Y+1, r24	; 0x01
    261a:	7c 83       	std	Y+4, r23	; 0x04
    261c:	6b 83       	std	Y+3, r22	; 0x03
  if(value < MIN_PULSE_WIDTH)
    261e:	8b 81       	ldd	r24, Y+3	; 0x03
    2620:	9c 81       	ldd	r25, Y+4	; 0x04
    2622:	80 32       	cpi	r24, 0x20	; 32
    2624:	92 40       	sbci	r25, 0x02	; 2
    2626:	0c f0       	brlt	.+2      	; 0x262a <_ZN5Servo5writeEi+0x38>
    2628:	5c c0       	rjmp	.+184    	; 0x26e2 <_ZN5Servo5writeEi+0xf0>
  {  // treat values less than 544 as angles in degrees (valid values in microseconds are handled as microseconds)
    if(value < 0) value = 0;
    262a:	8b 81       	ldd	r24, Y+3	; 0x03
    262c:	9c 81       	ldd	r25, Y+4	; 0x04
    262e:	99 23       	and	r25, r25
    2630:	14 f4       	brge	.+4      	; 0x2636 <_ZN5Servo5writeEi+0x44>
    2632:	1c 82       	std	Y+4, r1	; 0x04
    2634:	1b 82       	std	Y+3, r1	; 0x03
    if(value > 180) value = 180;
    2636:	8b 81       	ldd	r24, Y+3	; 0x03
    2638:	9c 81       	ldd	r25, Y+4	; 0x04
    263a:	85 3b       	cpi	r24, 0xB5	; 181
    263c:	91 05       	cpc	r25, r1
    263e:	24 f0       	brlt	.+8      	; 0x2648 <_ZN5Servo5writeEi+0x56>
    2640:	84 eb       	ldi	r24, 0xB4	; 180
    2642:	90 e0       	ldi	r25, 0x00	; 0
    2644:	9c 83       	std	Y+4, r25	; 0x04
    2646:	8b 83       	std	Y+3, r24	; 0x03
    value = map(value, 0, 180, SERVO_MIN(),  SERVO_MAX());
    2648:	89 81       	ldd	r24, Y+1	; 0x01
    264a:	9a 81       	ldd	r25, Y+2	; 0x02
    264c:	fc 01       	movw	r30, r24
    264e:	82 81       	ldd	r24, Z+2	; 0x02
    2650:	08 2e       	mov	r0, r24
    2652:	00 0c       	add	r0, r0
    2654:	99 0b       	sbc	r25, r25
    2656:	28 e5       	ldi	r18, 0x58	; 88
    2658:	32 e0       	ldi	r19, 0x02	; 2
    265a:	a9 01       	movw	r20, r18
    265c:	48 1b       	sub	r20, r24
    265e:	59 0b       	sbc	r21, r25
    2660:	ca 01       	movw	r24, r20
    2662:	88 0f       	add	r24, r24
    2664:	99 1f       	adc	r25, r25
    2666:	88 0f       	add	r24, r24
    2668:	99 1f       	adc	r25, r25
    266a:	09 2e       	mov	r0, r25
    266c:	00 0c       	add	r0, r0
    266e:	aa 0b       	sbc	r26, r26
    2670:	bb 0b       	sbc	r27, r27
    2672:	29 81       	ldd	r18, Y+1	; 0x01
    2674:	3a 81       	ldd	r19, Y+2	; 0x02
    2676:	f9 01       	movw	r30, r18
    2678:	21 81       	ldd	r18, Z+1	; 0x01
    267a:	02 2e       	mov	r0, r18
    267c:	00 0c       	add	r0, r0
    267e:	33 0b       	sbc	r19, r19
    2680:	48 e8       	ldi	r20, 0x88	; 136
    2682:	50 e0       	ldi	r21, 0x00	; 0
    2684:	ba 01       	movw	r22, r20
    2686:	62 1b       	sub	r22, r18
    2688:	73 0b       	sbc	r23, r19
    268a:	9b 01       	movw	r18, r22
    268c:	22 0f       	add	r18, r18
    268e:	33 1f       	adc	r19, r19
    2690:	22 0f       	add	r18, r18
    2692:	33 1f       	adc	r19, r19
    2694:	03 2e       	mov	r0, r19
    2696:	00 0c       	add	r0, r0
    2698:	44 0b       	sbc	r20, r20
    269a:	55 0b       	sbc	r21, r21
    269c:	6b 81       	ldd	r22, Y+3	; 0x03
    269e:	7c 81       	ldd	r23, Y+4	; 0x04
    26a0:	3b 01       	movw	r6, r22
    26a2:	77 0f       	add	r23, r23
    26a4:	88 08       	sbc	r8, r8
    26a6:	99 08       	sbc	r9, r9
    26a8:	6b 2f       	mov	r22, r27
    26aa:	6f 93       	push	r22
    26ac:	6a 2f       	mov	r22, r26
    26ae:	6f 93       	push	r22
    26b0:	69 2f       	mov	r22, r25
    26b2:	6f 93       	push	r22
    26b4:	8f 93       	push	r24
    26b6:	59 01       	movw	r10, r18
    26b8:	6a 01       	movw	r12, r20
    26ba:	14 eb       	ldi	r17, 0xB4	; 180
    26bc:	e1 2e       	mov	r14, r17
    26be:	f1 2c       	mov	r15, r1
    26c0:	00 e0       	ldi	r16, 0x00	; 0
    26c2:	10 e0       	ldi	r17, 0x00	; 0
    26c4:	20 e0       	ldi	r18, 0x00	; 0
    26c6:	30 e0       	ldi	r19, 0x00	; 0
    26c8:	a9 01       	movw	r20, r18
    26ca:	c4 01       	movw	r24, r8
    26cc:	b3 01       	movw	r22, r6
    26ce:	0e 94 61 0f 	call	0x1ec2	; 0x1ec2 <_Z3maplllll>
    26d2:	0f 90       	pop	r0
    26d4:	0f 90       	pop	r0
    26d6:	0f 90       	pop	r0
    26d8:	0f 90       	pop	r0
    26da:	dc 01       	movw	r26, r24
    26dc:	cb 01       	movw	r24, r22
    26de:	9c 83       	std	Y+4, r25	; 0x04
    26e0:	8b 83       	std	Y+3, r24	; 0x03
  }
  this->writeMicroseconds(value);
    26e2:	2b 81       	ldd	r18, Y+3	; 0x03
    26e4:	3c 81       	ldd	r19, Y+4	; 0x04
    26e6:	89 81       	ldd	r24, Y+1	; 0x01
    26e8:	9a 81       	ldd	r25, Y+2	; 0x02
    26ea:	b9 01       	movw	r22, r18
    26ec:	0e 94 8b 13 	call	0x2716	; 0x2716 <_ZN5Servo17writeMicrosecondsEi>
}
    26f0:	0f 90       	pop	r0
    26f2:	0f 90       	pop	r0
    26f4:	0f 90       	pop	r0
    26f6:	0f 90       	pop	r0
    26f8:	df 91       	pop	r29
    26fa:	cf 91       	pop	r28
    26fc:	1f 91       	pop	r17
    26fe:	0f 91       	pop	r16
    2700:	ff 90       	pop	r15
    2702:	ef 90       	pop	r14
    2704:	df 90       	pop	r13
    2706:	cf 90       	pop	r12
    2708:	bf 90       	pop	r11
    270a:	af 90       	pop	r10
    270c:	9f 90       	pop	r9
    270e:	8f 90       	pop	r8
    2710:	7f 90       	pop	r7
    2712:	6f 90       	pop	r6
    2714:	08 95       	ret

00002716 <_ZN5Servo17writeMicrosecondsEi>:

void Servo::writeMicroseconds(int value)
{
    2716:	cf 93       	push	r28
    2718:	df 93       	push	r29
    271a:	00 d0       	rcall	.+0      	; 0x271c <_ZN5Servo17writeMicrosecondsEi+0x6>
    271c:	00 d0       	rcall	.+0      	; 0x271e <_ZN5Servo17writeMicrosecondsEi+0x8>
    271e:	00 d0       	rcall	.+0      	; 0x2720 <_ZN5Servo17writeMicrosecondsEi+0xa>
    2720:	cd b7       	in	r28, 0x3d	; 61
    2722:	de b7       	in	r29, 0x3e	; 62
    2724:	9c 83       	std	Y+4, r25	; 0x04
    2726:	8b 83       	std	Y+3, r24	; 0x03
    2728:	7e 83       	std	Y+6, r23	; 0x06
    272a:	6d 83       	std	Y+5, r22	; 0x05
  // calculate and store the values for the given channel
  byte channel = this->servoIndex;
    272c:	8b 81       	ldd	r24, Y+3	; 0x03
    272e:	9c 81       	ldd	r25, Y+4	; 0x04
    2730:	fc 01       	movw	r30, r24
    2732:	80 81       	ld	r24, Z
    2734:	89 83       	std	Y+1, r24	; 0x01
  if( (channel < MAX_SERVOS) )   // ensure channel is valid
    2736:	89 81       	ldd	r24, Y+1	; 0x01
    2738:	8c 30       	cpi	r24, 0x0C	; 12
    273a:	08 f0       	brcs	.+2      	; 0x273e <_ZN5Servo17writeMicrosecondsEi+0x28>
    273c:	99 c0       	rjmp	.+306    	; 0x2870 <_ZN5Servo17writeMicrosecondsEi+0x15a>
  {
    if( value < SERVO_MIN() )          // ensure pulse width is valid
    273e:	8b 81       	ldd	r24, Y+3	; 0x03
    2740:	9c 81       	ldd	r25, Y+4	; 0x04
    2742:	fc 01       	movw	r30, r24
    2744:	81 81       	ldd	r24, Z+1	; 0x01
    2746:	08 2e       	mov	r0, r24
    2748:	00 0c       	add	r0, r0
    274a:	99 0b       	sbc	r25, r25
    274c:	28 e8       	ldi	r18, 0x88	; 136
    274e:	30 e0       	ldi	r19, 0x00	; 0
    2750:	a9 01       	movw	r20, r18
    2752:	48 1b       	sub	r20, r24
    2754:	59 0b       	sbc	r21, r25
    2756:	ca 01       	movw	r24, r20
    2758:	9c 01       	movw	r18, r24
    275a:	22 0f       	add	r18, r18
    275c:	33 1f       	adc	r19, r19
    275e:	22 0f       	add	r18, r18
    2760:	33 1f       	adc	r19, r19
    2762:	8d 81       	ldd	r24, Y+5	; 0x05
    2764:	9e 81       	ldd	r25, Y+6	; 0x06
    2766:	82 17       	cp	r24, r18
    2768:	93 07       	cpc	r25, r19
    276a:	a4 f4       	brge	.+40     	; 0x2794 <_ZN5Servo17writeMicrosecondsEi+0x7e>
      value = SERVO_MIN();
    276c:	8b 81       	ldd	r24, Y+3	; 0x03
    276e:	9c 81       	ldd	r25, Y+4	; 0x04
    2770:	fc 01       	movw	r30, r24
    2772:	81 81       	ldd	r24, Z+1	; 0x01
    2774:	08 2e       	mov	r0, r24
    2776:	00 0c       	add	r0, r0
    2778:	99 0b       	sbc	r25, r25
    277a:	28 e8       	ldi	r18, 0x88	; 136
    277c:	30 e0       	ldi	r19, 0x00	; 0
    277e:	a9 01       	movw	r20, r18
    2780:	48 1b       	sub	r20, r24
    2782:	59 0b       	sbc	r21, r25
    2784:	ca 01       	movw	r24, r20
    2786:	88 0f       	add	r24, r24
    2788:	99 1f       	adc	r25, r25
    278a:	88 0f       	add	r24, r24
    278c:	99 1f       	adc	r25, r25
    278e:	9e 83       	std	Y+6, r25	; 0x06
    2790:	8d 83       	std	Y+5, r24	; 0x05
    2792:	2a c0       	rjmp	.+84     	; 0x27e8 <_ZN5Servo17writeMicrosecondsEi+0xd2>
    else if( value > SERVO_MAX() )
    2794:	8b 81       	ldd	r24, Y+3	; 0x03
    2796:	9c 81       	ldd	r25, Y+4	; 0x04
    2798:	fc 01       	movw	r30, r24
    279a:	82 81       	ldd	r24, Z+2	; 0x02
    279c:	08 2e       	mov	r0, r24
    279e:	00 0c       	add	r0, r0
    27a0:	99 0b       	sbc	r25, r25
    27a2:	28 e5       	ldi	r18, 0x58	; 88
    27a4:	32 e0       	ldi	r19, 0x02	; 2
    27a6:	a9 01       	movw	r20, r18
    27a8:	48 1b       	sub	r20, r24
    27aa:	59 0b       	sbc	r21, r25
    27ac:	ca 01       	movw	r24, r20
    27ae:	9c 01       	movw	r18, r24
    27b0:	22 0f       	add	r18, r18
    27b2:	33 1f       	adc	r19, r19
    27b4:	22 0f       	add	r18, r18
    27b6:	33 1f       	adc	r19, r19
    27b8:	8d 81       	ldd	r24, Y+5	; 0x05
    27ba:	9e 81       	ldd	r25, Y+6	; 0x06
    27bc:	28 17       	cp	r18, r24
    27be:	39 07       	cpc	r19, r25
    27c0:	9c f4       	brge	.+38     	; 0x27e8 <_ZN5Servo17writeMicrosecondsEi+0xd2>
      value = SERVO_MAX();
    27c2:	8b 81       	ldd	r24, Y+3	; 0x03
    27c4:	9c 81       	ldd	r25, Y+4	; 0x04
    27c6:	fc 01       	movw	r30, r24
    27c8:	82 81       	ldd	r24, Z+2	; 0x02
    27ca:	08 2e       	mov	r0, r24
    27cc:	00 0c       	add	r0, r0
    27ce:	99 0b       	sbc	r25, r25
    27d0:	28 e5       	ldi	r18, 0x58	; 88
    27d2:	32 e0       	ldi	r19, 0x02	; 2
    27d4:	a9 01       	movw	r20, r18
    27d6:	48 1b       	sub	r20, r24
    27d8:	59 0b       	sbc	r21, r25
    27da:	ca 01       	movw	r24, r20
    27dc:	88 0f       	add	r24, r24
    27de:	99 1f       	adc	r25, r25
    27e0:	88 0f       	add	r24, r24
    27e2:	99 1f       	adc	r25, r25
    27e4:	9e 83       	std	Y+6, r25	; 0x06
    27e6:	8d 83       	std	Y+5, r24	; 0x05

    value = value - TRIM_DURATION;
    27e8:	8d 81       	ldd	r24, Y+5	; 0x05
    27ea:	9e 81       	ldd	r25, Y+6	; 0x06
    27ec:	02 97       	sbiw	r24, 0x02	; 2
    27ee:	9e 83       	std	Y+6, r25	; 0x06
    27f0:	8d 83       	std	Y+5, r24	; 0x05
    value = usToTicks(value);  // convert to ticks after compensating for interrupt overhead - 12 Aug 2009
    27f2:	8d 81       	ldd	r24, Y+5	; 0x05
    27f4:	9e 81       	ldd	r25, Y+6	; 0x06
    27f6:	09 2e       	mov	r0, r25
    27f8:	00 0c       	add	r0, r0
    27fa:	aa 0b       	sbc	r26, r26
    27fc:	bb 0b       	sbc	r27, r27
    27fe:	88 0f       	add	r24, r24
    2800:	99 1f       	adc	r25, r25
    2802:	aa 1f       	adc	r26, r26
    2804:	bb 1f       	adc	r27, r27
    2806:	88 0f       	add	r24, r24
    2808:	99 1f       	adc	r25, r25
    280a:	aa 1f       	adc	r26, r26
    280c:	bb 1f       	adc	r27, r27
    280e:	88 0f       	add	r24, r24
    2810:	99 1f       	adc	r25, r25
    2812:	aa 1f       	adc	r26, r26
    2814:	bb 1f       	adc	r27, r27
    2816:	88 0f       	add	r24, r24
    2818:	99 1f       	adc	r25, r25
    281a:	aa 1f       	adc	r26, r26
    281c:	bb 1f       	adc	r27, r27
    281e:	bb 23       	and	r27, r27
    2820:	1c f4       	brge	.+6      	; 0x2828 <_ZN5Servo17writeMicrosecondsEi+0x112>
    2822:	07 96       	adiw	r24, 0x07	; 7
    2824:	a1 1d       	adc	r26, r1
    2826:	b1 1d       	adc	r27, r1
    2828:	68 94       	set
    282a:	12 f8       	bld	r1, 2
    282c:	b5 95       	asr	r27
    282e:	a7 95       	ror	r26
    2830:	97 95       	ror	r25
    2832:	87 95       	ror	r24
    2834:	16 94       	lsr	r1
    2836:	d1 f7       	brne	.-12     	; 0x282c <_ZN5Servo17writeMicrosecondsEi+0x116>
    2838:	9e 83       	std	Y+6, r25	; 0x06
    283a:	8d 83       	std	Y+5, r24	; 0x05

    uint8_t oldSREG = SREG;
    283c:	8f e5       	ldi	r24, 0x5F	; 95
    283e:	90 e0       	ldi	r25, 0x00	; 0
    2840:	fc 01       	movw	r30, r24
    2842:	80 81       	ld	r24, Z
    2844:	8a 83       	std	Y+2, r24	; 0x02
    cli();
    2846:	f8 94       	cli
    servos[channel].ticks = value;
    2848:	89 81       	ldd	r24, Y+1	; 0x01
    284a:	28 2f       	mov	r18, r24
    284c:	30 e0       	ldi	r19, 0x00	; 0
    284e:	4d 81       	ldd	r20, Y+5	; 0x05
    2850:	5e 81       	ldd	r21, Y+6	; 0x06
    2852:	c9 01       	movw	r24, r18
    2854:	88 0f       	add	r24, r24
    2856:	99 1f       	adc	r25, r25
    2858:	82 0f       	add	r24, r18
    285a:	93 1f       	adc	r25, r19
    285c:	81 5a       	subi	r24, 0xA1	; 161
    285e:	9d 4f       	sbci	r25, 0xFD	; 253
    2860:	fc 01       	movw	r30, r24
    2862:	51 83       	std	Z+1, r21	; 0x01
    2864:	40 83       	st	Z, r20
    SREG = oldSREG;
    2866:	8f e5       	ldi	r24, 0x5F	; 95
    2868:	90 e0       	ldi	r25, 0x00	; 0
    286a:	2a 81       	ldd	r18, Y+2	; 0x02
    286c:	fc 01       	movw	r30, r24
    286e:	20 83       	st	Z, r18
  }
}
    2870:	26 96       	adiw	r28, 0x06	; 6
    2872:	0f b6       	in	r0, 0x3f	; 63
    2874:	f8 94       	cli
    2876:	de bf       	out	0x3e, r29	; 62
    2878:	0f be       	out	0x3f, r0	; 63
    287a:	cd bf       	out	0x3d, r28	; 61
    287c:	df 91       	pop	r29
    287e:	cf 91       	pop	r28
    2880:	08 95       	ret

00002882 <__mulsi3>:
    2882:	db 01       	movw	r26, r22
    2884:	8f 93       	push	r24
    2886:	9f 93       	push	r25
    2888:	0e 94 92 14 	call	0x2924	; 0x2924 <__muluhisi3>
    288c:	bf 91       	pop	r27
    288e:	af 91       	pop	r26
    2890:	a2 9f       	mul	r26, r18
    2892:	80 0d       	add	r24, r0
    2894:	91 1d       	adc	r25, r1
    2896:	a3 9f       	mul	r26, r19
    2898:	90 0d       	add	r25, r0
    289a:	b2 9f       	mul	r27, r18
    289c:	90 0d       	add	r25, r0
    289e:	11 24       	eor	r1, r1
    28a0:	08 95       	ret

000028a2 <__udivmodsi4>:
    28a2:	a1 e2       	ldi	r26, 0x21	; 33
    28a4:	1a 2e       	mov	r1, r26
    28a6:	aa 1b       	sub	r26, r26
    28a8:	bb 1b       	sub	r27, r27
    28aa:	fd 01       	movw	r30, r26
    28ac:	0d c0       	rjmp	.+26     	; 0x28c8 <__udivmodsi4_ep>

000028ae <__udivmodsi4_loop>:
    28ae:	aa 1f       	adc	r26, r26
    28b0:	bb 1f       	adc	r27, r27
    28b2:	ee 1f       	adc	r30, r30
    28b4:	ff 1f       	adc	r31, r31
    28b6:	a2 17       	cp	r26, r18
    28b8:	b3 07       	cpc	r27, r19
    28ba:	e4 07       	cpc	r30, r20
    28bc:	f5 07       	cpc	r31, r21
    28be:	20 f0       	brcs	.+8      	; 0x28c8 <__udivmodsi4_ep>
    28c0:	a2 1b       	sub	r26, r18
    28c2:	b3 0b       	sbc	r27, r19
    28c4:	e4 0b       	sbc	r30, r20
    28c6:	f5 0b       	sbc	r31, r21

000028c8 <__udivmodsi4_ep>:
    28c8:	66 1f       	adc	r22, r22
    28ca:	77 1f       	adc	r23, r23
    28cc:	88 1f       	adc	r24, r24
    28ce:	99 1f       	adc	r25, r25
    28d0:	1a 94       	dec	r1
    28d2:	69 f7       	brne	.-38     	; 0x28ae <__udivmodsi4_loop>
    28d4:	60 95       	com	r22
    28d6:	70 95       	com	r23
    28d8:	80 95       	com	r24
    28da:	90 95       	com	r25
    28dc:	9b 01       	movw	r18, r22
    28de:	ac 01       	movw	r20, r24
    28e0:	bd 01       	movw	r22, r26
    28e2:	cf 01       	movw	r24, r30
    28e4:	08 95       	ret

000028e6 <__divmodsi4>:
    28e6:	05 2e       	mov	r0, r21
    28e8:	97 fb       	bst	r25, 7
    28ea:	1e f4       	brtc	.+6      	; 0x28f2 <__divmodsi4+0xc>
    28ec:	00 94       	com	r0
    28ee:	0e 94 8a 14 	call	0x2914	; 0x2914 <__negsi2>
    28f2:	57 fd       	sbrc	r21, 7
    28f4:	07 d0       	rcall	.+14     	; 0x2904 <__divmodsi4_neg2>
    28f6:	0e 94 51 14 	call	0x28a2	; 0x28a2 <__udivmodsi4>
    28fa:	07 fc       	sbrc	r0, 7
    28fc:	03 d0       	rcall	.+6      	; 0x2904 <__divmodsi4_neg2>
    28fe:	4e f4       	brtc	.+18     	; 0x2912 <__divmodsi4_exit>
    2900:	0c 94 8a 14 	jmp	0x2914	; 0x2914 <__negsi2>

00002904 <__divmodsi4_neg2>:
    2904:	50 95       	com	r21
    2906:	40 95       	com	r20
    2908:	30 95       	com	r19
    290a:	21 95       	neg	r18
    290c:	3f 4f       	sbci	r19, 0xFF	; 255
    290e:	4f 4f       	sbci	r20, 0xFF	; 255
    2910:	5f 4f       	sbci	r21, 0xFF	; 255

00002912 <__divmodsi4_exit>:
    2912:	08 95       	ret

00002914 <__negsi2>:
    2914:	90 95       	com	r25
    2916:	80 95       	com	r24
    2918:	70 95       	com	r23
    291a:	61 95       	neg	r22
    291c:	7f 4f       	sbci	r23, 0xFF	; 255
    291e:	8f 4f       	sbci	r24, 0xFF	; 255
    2920:	9f 4f       	sbci	r25, 0xFF	; 255
    2922:	08 95       	ret

00002924 <__muluhisi3>:
    2924:	0e 94 a3 14 	call	0x2946	; 0x2946 <__umulhisi3>
    2928:	a5 9f       	mul	r26, r21
    292a:	90 0d       	add	r25, r0
    292c:	b4 9f       	mul	r27, r20
    292e:	90 0d       	add	r25, r0
    2930:	a4 9f       	mul	r26, r20
    2932:	80 0d       	add	r24, r0
    2934:	91 1d       	adc	r25, r1
    2936:	11 24       	eor	r1, r1
    2938:	08 95       	ret

0000293a <__tablejump2__>:
    293a:	ee 0f       	add	r30, r30
    293c:	ff 1f       	adc	r31, r31
    293e:	05 90       	lpm	r0, Z+
    2940:	f4 91       	lpm	r31, Z
    2942:	e0 2d       	mov	r30, r0
    2944:	09 94       	ijmp

00002946 <__umulhisi3>:
    2946:	a2 9f       	mul	r26, r18
    2948:	b0 01       	movw	r22, r0
    294a:	b3 9f       	mul	r27, r19
    294c:	c0 01       	movw	r24, r0
    294e:	a3 9f       	mul	r26, r19
    2950:	70 0d       	add	r23, r0
    2952:	81 1d       	adc	r24, r1
    2954:	11 24       	eor	r1, r1
    2956:	91 1d       	adc	r25, r1
    2958:	b2 9f       	mul	r27, r18
    295a:	70 0d       	add	r23, r0
    295c:	81 1d       	adc	r24, r1
    295e:	11 24       	eor	r1, r1
    2960:	91 1d       	adc	r25, r1
    2962:	08 95       	ret

00002964 <__subsf3>:
    2964:	50 58       	subi	r21, 0x80	; 128

00002966 <__addsf3>:
    2966:	bb 27       	eor	r27, r27
    2968:	aa 27       	eor	r26, r26
    296a:	0e 94 ca 14 	call	0x2994	; 0x2994 <__addsf3x>
    296e:	0c 94 44 16 	jmp	0x2c88	; 0x2c88 <__fp_round>
    2972:	0e 94 36 16 	call	0x2c6c	; 0x2c6c <__fp_pscA>
    2976:	38 f0       	brcs	.+14     	; 0x2986 <__addsf3+0x20>
    2978:	0e 94 3d 16 	call	0x2c7a	; 0x2c7a <__fp_pscB>
    297c:	20 f0       	brcs	.+8      	; 0x2986 <__addsf3+0x20>
    297e:	39 f4       	brne	.+14     	; 0x298e <__addsf3+0x28>
    2980:	9f 3f       	cpi	r25, 0xFF	; 255
    2982:	19 f4       	brne	.+6      	; 0x298a <__addsf3+0x24>
    2984:	26 f4       	brtc	.+8      	; 0x298e <__addsf3+0x28>
    2986:	0c 94 33 16 	jmp	0x2c66	; 0x2c66 <__fp_nan>
    298a:	0e f4       	brtc	.+2      	; 0x298e <__addsf3+0x28>
    298c:	e0 95       	com	r30
    298e:	e7 fb       	bst	r30, 7
    2990:	0c 94 2d 16 	jmp	0x2c5a	; 0x2c5a <__fp_inf>

00002994 <__addsf3x>:
    2994:	e9 2f       	mov	r30, r25
    2996:	0e 94 55 16 	call	0x2caa	; 0x2caa <__fp_split3>
    299a:	58 f3       	brcs	.-42     	; 0x2972 <__addsf3+0xc>
    299c:	ba 17       	cp	r27, r26
    299e:	62 07       	cpc	r22, r18
    29a0:	73 07       	cpc	r23, r19
    29a2:	84 07       	cpc	r24, r20
    29a4:	95 07       	cpc	r25, r21
    29a6:	20 f0       	brcs	.+8      	; 0x29b0 <__addsf3x+0x1c>
    29a8:	79 f4       	brne	.+30     	; 0x29c8 <__addsf3x+0x34>
    29aa:	a6 f5       	brtc	.+104    	; 0x2a14 <__addsf3x+0x80>
    29ac:	0c 94 77 16 	jmp	0x2cee	; 0x2cee <__fp_zero>
    29b0:	0e f4       	brtc	.+2      	; 0x29b4 <__addsf3x+0x20>
    29b2:	e0 95       	com	r30
    29b4:	0b 2e       	mov	r0, r27
    29b6:	ba 2f       	mov	r27, r26
    29b8:	a0 2d       	mov	r26, r0
    29ba:	0b 01       	movw	r0, r22
    29bc:	b9 01       	movw	r22, r18
    29be:	90 01       	movw	r18, r0
    29c0:	0c 01       	movw	r0, r24
    29c2:	ca 01       	movw	r24, r20
    29c4:	a0 01       	movw	r20, r0
    29c6:	11 24       	eor	r1, r1
    29c8:	ff 27       	eor	r31, r31
    29ca:	59 1b       	sub	r21, r25
    29cc:	99 f0       	breq	.+38     	; 0x29f4 <__addsf3x+0x60>
    29ce:	59 3f       	cpi	r21, 0xF9	; 249
    29d0:	50 f4       	brcc	.+20     	; 0x29e6 <__addsf3x+0x52>
    29d2:	50 3e       	cpi	r21, 0xE0	; 224
    29d4:	68 f1       	brcs	.+90     	; 0x2a30 <__addsf3x+0x9c>
    29d6:	1a 16       	cp	r1, r26
    29d8:	f0 40       	sbci	r31, 0x00	; 0
    29da:	a2 2f       	mov	r26, r18
    29dc:	23 2f       	mov	r18, r19
    29de:	34 2f       	mov	r19, r20
    29e0:	44 27       	eor	r20, r20
    29e2:	58 5f       	subi	r21, 0xF8	; 248
    29e4:	f3 cf       	rjmp	.-26     	; 0x29cc <__addsf3x+0x38>
    29e6:	46 95       	lsr	r20
    29e8:	37 95       	ror	r19
    29ea:	27 95       	ror	r18
    29ec:	a7 95       	ror	r26
    29ee:	f0 40       	sbci	r31, 0x00	; 0
    29f0:	53 95       	inc	r21
    29f2:	c9 f7       	brne	.-14     	; 0x29e6 <__addsf3x+0x52>
    29f4:	7e f4       	brtc	.+30     	; 0x2a14 <__addsf3x+0x80>
    29f6:	1f 16       	cp	r1, r31
    29f8:	ba 0b       	sbc	r27, r26
    29fa:	62 0b       	sbc	r22, r18
    29fc:	73 0b       	sbc	r23, r19
    29fe:	84 0b       	sbc	r24, r20
    2a00:	ba f0       	brmi	.+46     	; 0x2a30 <__addsf3x+0x9c>
    2a02:	91 50       	subi	r25, 0x01	; 1
    2a04:	a1 f0       	breq	.+40     	; 0x2a2e <__addsf3x+0x9a>
    2a06:	ff 0f       	add	r31, r31
    2a08:	bb 1f       	adc	r27, r27
    2a0a:	66 1f       	adc	r22, r22
    2a0c:	77 1f       	adc	r23, r23
    2a0e:	88 1f       	adc	r24, r24
    2a10:	c2 f7       	brpl	.-16     	; 0x2a02 <__addsf3x+0x6e>
    2a12:	0e c0       	rjmp	.+28     	; 0x2a30 <__addsf3x+0x9c>
    2a14:	ba 0f       	add	r27, r26
    2a16:	62 1f       	adc	r22, r18
    2a18:	73 1f       	adc	r23, r19
    2a1a:	84 1f       	adc	r24, r20
    2a1c:	48 f4       	brcc	.+18     	; 0x2a30 <__addsf3x+0x9c>
    2a1e:	87 95       	ror	r24
    2a20:	77 95       	ror	r23
    2a22:	67 95       	ror	r22
    2a24:	b7 95       	ror	r27
    2a26:	f7 95       	ror	r31
    2a28:	9e 3f       	cpi	r25, 0xFE	; 254
    2a2a:	08 f0       	brcs	.+2      	; 0x2a2e <__addsf3x+0x9a>
    2a2c:	b0 cf       	rjmp	.-160    	; 0x298e <__addsf3+0x28>
    2a2e:	93 95       	inc	r25
    2a30:	88 0f       	add	r24, r24
    2a32:	08 f0       	brcs	.+2      	; 0x2a36 <__addsf3x+0xa2>
    2a34:	99 27       	eor	r25, r25
    2a36:	ee 0f       	add	r30, r30
    2a38:	97 95       	ror	r25
    2a3a:	87 95       	ror	r24
    2a3c:	08 95       	ret

00002a3e <__cmpsf2>:
    2a3e:	0e 94 09 16 	call	0x2c12	; 0x2c12 <__fp_cmp>
    2a42:	08 f4       	brcc	.+2      	; 0x2a46 <__cmpsf2+0x8>
    2a44:	81 e0       	ldi	r24, 0x01	; 1
    2a46:	08 95       	ret

00002a48 <__divsf3>:
    2a48:	0e 94 38 15 	call	0x2a70	; 0x2a70 <__divsf3x>
    2a4c:	0c 94 44 16 	jmp	0x2c88	; 0x2c88 <__fp_round>
    2a50:	0e 94 3d 16 	call	0x2c7a	; 0x2c7a <__fp_pscB>
    2a54:	58 f0       	brcs	.+22     	; 0x2a6c <__divsf3+0x24>
    2a56:	0e 94 36 16 	call	0x2c6c	; 0x2c6c <__fp_pscA>
    2a5a:	40 f0       	brcs	.+16     	; 0x2a6c <__divsf3+0x24>
    2a5c:	29 f4       	brne	.+10     	; 0x2a68 <__divsf3+0x20>
    2a5e:	5f 3f       	cpi	r21, 0xFF	; 255
    2a60:	29 f0       	breq	.+10     	; 0x2a6c <__divsf3+0x24>
    2a62:	0c 94 2d 16 	jmp	0x2c5a	; 0x2c5a <__fp_inf>
    2a66:	51 11       	cpse	r21, r1
    2a68:	0c 94 78 16 	jmp	0x2cf0	; 0x2cf0 <__fp_szero>
    2a6c:	0c 94 33 16 	jmp	0x2c66	; 0x2c66 <__fp_nan>

00002a70 <__divsf3x>:
    2a70:	0e 94 55 16 	call	0x2caa	; 0x2caa <__fp_split3>
    2a74:	68 f3       	brcs	.-38     	; 0x2a50 <__divsf3+0x8>

00002a76 <__divsf3_pse>:
    2a76:	99 23       	and	r25, r25
    2a78:	b1 f3       	breq	.-20     	; 0x2a66 <__divsf3+0x1e>
    2a7a:	55 23       	and	r21, r21
    2a7c:	91 f3       	breq	.-28     	; 0x2a62 <__divsf3+0x1a>
    2a7e:	95 1b       	sub	r25, r21
    2a80:	55 0b       	sbc	r21, r21
    2a82:	bb 27       	eor	r27, r27
    2a84:	aa 27       	eor	r26, r26
    2a86:	62 17       	cp	r22, r18
    2a88:	73 07       	cpc	r23, r19
    2a8a:	84 07       	cpc	r24, r20
    2a8c:	38 f0       	brcs	.+14     	; 0x2a9c <__divsf3_pse+0x26>
    2a8e:	9f 5f       	subi	r25, 0xFF	; 255
    2a90:	5f 4f       	sbci	r21, 0xFF	; 255
    2a92:	22 0f       	add	r18, r18
    2a94:	33 1f       	adc	r19, r19
    2a96:	44 1f       	adc	r20, r20
    2a98:	aa 1f       	adc	r26, r26
    2a9a:	a9 f3       	breq	.-22     	; 0x2a86 <__divsf3_pse+0x10>
    2a9c:	35 d0       	rcall	.+106    	; 0x2b08 <__divsf3_pse+0x92>
    2a9e:	0e 2e       	mov	r0, r30
    2aa0:	3a f0       	brmi	.+14     	; 0x2ab0 <__divsf3_pse+0x3a>
    2aa2:	e0 e8       	ldi	r30, 0x80	; 128
    2aa4:	32 d0       	rcall	.+100    	; 0x2b0a <__divsf3_pse+0x94>
    2aa6:	91 50       	subi	r25, 0x01	; 1
    2aa8:	50 40       	sbci	r21, 0x00	; 0
    2aaa:	e6 95       	lsr	r30
    2aac:	00 1c       	adc	r0, r0
    2aae:	ca f7       	brpl	.-14     	; 0x2aa2 <__divsf3_pse+0x2c>
    2ab0:	2b d0       	rcall	.+86     	; 0x2b08 <__divsf3_pse+0x92>
    2ab2:	fe 2f       	mov	r31, r30
    2ab4:	29 d0       	rcall	.+82     	; 0x2b08 <__divsf3_pse+0x92>
    2ab6:	66 0f       	add	r22, r22
    2ab8:	77 1f       	adc	r23, r23
    2aba:	88 1f       	adc	r24, r24
    2abc:	bb 1f       	adc	r27, r27
    2abe:	26 17       	cp	r18, r22
    2ac0:	37 07       	cpc	r19, r23
    2ac2:	48 07       	cpc	r20, r24
    2ac4:	ab 07       	cpc	r26, r27
    2ac6:	b0 e8       	ldi	r27, 0x80	; 128
    2ac8:	09 f0       	breq	.+2      	; 0x2acc <__divsf3_pse+0x56>
    2aca:	bb 0b       	sbc	r27, r27
    2acc:	80 2d       	mov	r24, r0
    2ace:	bf 01       	movw	r22, r30
    2ad0:	ff 27       	eor	r31, r31
    2ad2:	93 58       	subi	r25, 0x83	; 131
    2ad4:	5f 4f       	sbci	r21, 0xFF	; 255
    2ad6:	3a f0       	brmi	.+14     	; 0x2ae6 <__divsf3_pse+0x70>
    2ad8:	9e 3f       	cpi	r25, 0xFE	; 254
    2ada:	51 05       	cpc	r21, r1
    2adc:	78 f0       	brcs	.+30     	; 0x2afc <__divsf3_pse+0x86>
    2ade:	0c 94 2d 16 	jmp	0x2c5a	; 0x2c5a <__fp_inf>
    2ae2:	0c 94 78 16 	jmp	0x2cf0	; 0x2cf0 <__fp_szero>
    2ae6:	5f 3f       	cpi	r21, 0xFF	; 255
    2ae8:	e4 f3       	brlt	.-8      	; 0x2ae2 <__divsf3_pse+0x6c>
    2aea:	98 3e       	cpi	r25, 0xE8	; 232
    2aec:	d4 f3       	brlt	.-12     	; 0x2ae2 <__divsf3_pse+0x6c>
    2aee:	86 95       	lsr	r24
    2af0:	77 95       	ror	r23
    2af2:	67 95       	ror	r22
    2af4:	b7 95       	ror	r27
    2af6:	f7 95       	ror	r31
    2af8:	9f 5f       	subi	r25, 0xFF	; 255
    2afa:	c9 f7       	brne	.-14     	; 0x2aee <__divsf3_pse+0x78>
    2afc:	88 0f       	add	r24, r24
    2afe:	91 1d       	adc	r25, r1
    2b00:	96 95       	lsr	r25
    2b02:	87 95       	ror	r24
    2b04:	97 f9       	bld	r25, 7
    2b06:	08 95       	ret
    2b08:	e1 e0       	ldi	r30, 0x01	; 1
    2b0a:	66 0f       	add	r22, r22
    2b0c:	77 1f       	adc	r23, r23
    2b0e:	88 1f       	adc	r24, r24
    2b10:	bb 1f       	adc	r27, r27
    2b12:	62 17       	cp	r22, r18
    2b14:	73 07       	cpc	r23, r19
    2b16:	84 07       	cpc	r24, r20
    2b18:	ba 07       	cpc	r27, r26
    2b1a:	20 f0       	brcs	.+8      	; 0x2b24 <__divsf3_pse+0xae>
    2b1c:	62 1b       	sub	r22, r18
    2b1e:	73 0b       	sbc	r23, r19
    2b20:	84 0b       	sbc	r24, r20
    2b22:	ba 0b       	sbc	r27, r26
    2b24:	ee 1f       	adc	r30, r30
    2b26:	88 f7       	brcc	.-30     	; 0x2b0a <__divsf3_pse+0x94>
    2b28:	e0 95       	com	r30
    2b2a:	08 95       	ret

00002b2c <__fixsfsi>:
    2b2c:	0e 94 9d 15 	call	0x2b3a	; 0x2b3a <__fixunssfsi>
    2b30:	68 94       	set
    2b32:	b1 11       	cpse	r27, r1
    2b34:	0c 94 78 16 	jmp	0x2cf0	; 0x2cf0 <__fp_szero>
    2b38:	08 95       	ret

00002b3a <__fixunssfsi>:
    2b3a:	0e 94 5d 16 	call	0x2cba	; 0x2cba <__fp_splitA>
    2b3e:	88 f0       	brcs	.+34     	; 0x2b62 <__fixunssfsi+0x28>
    2b40:	9f 57       	subi	r25, 0x7F	; 127
    2b42:	98 f0       	brcs	.+38     	; 0x2b6a <__fixunssfsi+0x30>
    2b44:	b9 2f       	mov	r27, r25
    2b46:	99 27       	eor	r25, r25
    2b48:	b7 51       	subi	r27, 0x17	; 23
    2b4a:	b0 f0       	brcs	.+44     	; 0x2b78 <__fixunssfsi+0x3e>
    2b4c:	e1 f0       	breq	.+56     	; 0x2b86 <__fixunssfsi+0x4c>
    2b4e:	66 0f       	add	r22, r22
    2b50:	77 1f       	adc	r23, r23
    2b52:	88 1f       	adc	r24, r24
    2b54:	99 1f       	adc	r25, r25
    2b56:	1a f0       	brmi	.+6      	; 0x2b5e <__fixunssfsi+0x24>
    2b58:	ba 95       	dec	r27
    2b5a:	c9 f7       	brne	.-14     	; 0x2b4e <__fixunssfsi+0x14>
    2b5c:	14 c0       	rjmp	.+40     	; 0x2b86 <__fixunssfsi+0x4c>
    2b5e:	b1 30       	cpi	r27, 0x01	; 1
    2b60:	91 f0       	breq	.+36     	; 0x2b86 <__fixunssfsi+0x4c>
    2b62:	0e 94 77 16 	call	0x2cee	; 0x2cee <__fp_zero>
    2b66:	b1 e0       	ldi	r27, 0x01	; 1
    2b68:	08 95       	ret
    2b6a:	0c 94 77 16 	jmp	0x2cee	; 0x2cee <__fp_zero>
    2b6e:	67 2f       	mov	r22, r23
    2b70:	78 2f       	mov	r23, r24
    2b72:	88 27       	eor	r24, r24
    2b74:	b8 5f       	subi	r27, 0xF8	; 248
    2b76:	39 f0       	breq	.+14     	; 0x2b86 <__fixunssfsi+0x4c>
    2b78:	b9 3f       	cpi	r27, 0xF9	; 249
    2b7a:	cc f3       	brlt	.-14     	; 0x2b6e <__fixunssfsi+0x34>
    2b7c:	86 95       	lsr	r24
    2b7e:	77 95       	ror	r23
    2b80:	67 95       	ror	r22
    2b82:	b3 95       	inc	r27
    2b84:	d9 f7       	brne	.-10     	; 0x2b7c <__fixunssfsi+0x42>
    2b86:	3e f4       	brtc	.+14     	; 0x2b96 <__fixunssfsi+0x5c>
    2b88:	90 95       	com	r25
    2b8a:	80 95       	com	r24
    2b8c:	70 95       	com	r23
    2b8e:	61 95       	neg	r22
    2b90:	7f 4f       	sbci	r23, 0xFF	; 255
    2b92:	8f 4f       	sbci	r24, 0xFF	; 255
    2b94:	9f 4f       	sbci	r25, 0xFF	; 255
    2b96:	08 95       	ret

00002b98 <__floatunsisf>:
    2b98:	e8 94       	clt
    2b9a:	09 c0       	rjmp	.+18     	; 0x2bae <__floatsisf+0x12>

00002b9c <__floatsisf>:
    2b9c:	97 fb       	bst	r25, 7
    2b9e:	3e f4       	brtc	.+14     	; 0x2bae <__floatsisf+0x12>
    2ba0:	90 95       	com	r25
    2ba2:	80 95       	com	r24
    2ba4:	70 95       	com	r23
    2ba6:	61 95       	neg	r22
    2ba8:	7f 4f       	sbci	r23, 0xFF	; 255
    2baa:	8f 4f       	sbci	r24, 0xFF	; 255
    2bac:	9f 4f       	sbci	r25, 0xFF	; 255
    2bae:	99 23       	and	r25, r25
    2bb0:	a9 f0       	breq	.+42     	; 0x2bdc <__floatsisf+0x40>
    2bb2:	f9 2f       	mov	r31, r25
    2bb4:	96 e9       	ldi	r25, 0x96	; 150
    2bb6:	bb 27       	eor	r27, r27
    2bb8:	93 95       	inc	r25
    2bba:	f6 95       	lsr	r31
    2bbc:	87 95       	ror	r24
    2bbe:	77 95       	ror	r23
    2bc0:	67 95       	ror	r22
    2bc2:	b7 95       	ror	r27
    2bc4:	f1 11       	cpse	r31, r1
    2bc6:	f8 cf       	rjmp	.-16     	; 0x2bb8 <__floatsisf+0x1c>
    2bc8:	fa f4       	brpl	.+62     	; 0x2c08 <__floatsisf+0x6c>
    2bca:	bb 0f       	add	r27, r27
    2bcc:	11 f4       	brne	.+4      	; 0x2bd2 <__floatsisf+0x36>
    2bce:	60 ff       	sbrs	r22, 0
    2bd0:	1b c0       	rjmp	.+54     	; 0x2c08 <__floatsisf+0x6c>
    2bd2:	6f 5f       	subi	r22, 0xFF	; 255
    2bd4:	7f 4f       	sbci	r23, 0xFF	; 255
    2bd6:	8f 4f       	sbci	r24, 0xFF	; 255
    2bd8:	9f 4f       	sbci	r25, 0xFF	; 255
    2bda:	16 c0       	rjmp	.+44     	; 0x2c08 <__floatsisf+0x6c>
    2bdc:	88 23       	and	r24, r24
    2bde:	11 f0       	breq	.+4      	; 0x2be4 <__floatsisf+0x48>
    2be0:	96 e9       	ldi	r25, 0x96	; 150
    2be2:	11 c0       	rjmp	.+34     	; 0x2c06 <__floatsisf+0x6a>
    2be4:	77 23       	and	r23, r23
    2be6:	21 f0       	breq	.+8      	; 0x2bf0 <__floatsisf+0x54>
    2be8:	9e e8       	ldi	r25, 0x8E	; 142
    2bea:	87 2f       	mov	r24, r23
    2bec:	76 2f       	mov	r23, r22
    2bee:	05 c0       	rjmp	.+10     	; 0x2bfa <__floatsisf+0x5e>
    2bf0:	66 23       	and	r22, r22
    2bf2:	71 f0       	breq	.+28     	; 0x2c10 <__floatsisf+0x74>
    2bf4:	96 e8       	ldi	r25, 0x86	; 134
    2bf6:	86 2f       	mov	r24, r22
    2bf8:	70 e0       	ldi	r23, 0x00	; 0
    2bfa:	60 e0       	ldi	r22, 0x00	; 0
    2bfc:	2a f0       	brmi	.+10     	; 0x2c08 <__floatsisf+0x6c>
    2bfe:	9a 95       	dec	r25
    2c00:	66 0f       	add	r22, r22
    2c02:	77 1f       	adc	r23, r23
    2c04:	88 1f       	adc	r24, r24
    2c06:	da f7       	brpl	.-10     	; 0x2bfe <__floatsisf+0x62>
    2c08:	88 0f       	add	r24, r24
    2c0a:	96 95       	lsr	r25
    2c0c:	87 95       	ror	r24
    2c0e:	97 f9       	bld	r25, 7
    2c10:	08 95       	ret

00002c12 <__fp_cmp>:
    2c12:	99 0f       	add	r25, r25
    2c14:	00 08       	sbc	r0, r0
    2c16:	55 0f       	add	r21, r21
    2c18:	aa 0b       	sbc	r26, r26
    2c1a:	e0 e8       	ldi	r30, 0x80	; 128
    2c1c:	fe ef       	ldi	r31, 0xFE	; 254
    2c1e:	16 16       	cp	r1, r22
    2c20:	17 06       	cpc	r1, r23
    2c22:	e8 07       	cpc	r30, r24
    2c24:	f9 07       	cpc	r31, r25
    2c26:	c0 f0       	brcs	.+48     	; 0x2c58 <__fp_cmp+0x46>
    2c28:	12 16       	cp	r1, r18
    2c2a:	13 06       	cpc	r1, r19
    2c2c:	e4 07       	cpc	r30, r20
    2c2e:	f5 07       	cpc	r31, r21
    2c30:	98 f0       	brcs	.+38     	; 0x2c58 <__fp_cmp+0x46>
    2c32:	62 1b       	sub	r22, r18
    2c34:	73 0b       	sbc	r23, r19
    2c36:	84 0b       	sbc	r24, r20
    2c38:	95 0b       	sbc	r25, r21
    2c3a:	39 f4       	brne	.+14     	; 0x2c4a <__fp_cmp+0x38>
    2c3c:	0a 26       	eor	r0, r26
    2c3e:	61 f0       	breq	.+24     	; 0x2c58 <__fp_cmp+0x46>
    2c40:	23 2b       	or	r18, r19
    2c42:	24 2b       	or	r18, r20
    2c44:	25 2b       	or	r18, r21
    2c46:	21 f4       	brne	.+8      	; 0x2c50 <__fp_cmp+0x3e>
    2c48:	08 95       	ret
    2c4a:	0a 26       	eor	r0, r26
    2c4c:	09 f4       	brne	.+2      	; 0x2c50 <__fp_cmp+0x3e>
    2c4e:	a1 40       	sbci	r26, 0x01	; 1
    2c50:	a6 95       	lsr	r26
    2c52:	8f ef       	ldi	r24, 0xFF	; 255
    2c54:	81 1d       	adc	r24, r1
    2c56:	81 1d       	adc	r24, r1
    2c58:	08 95       	ret

00002c5a <__fp_inf>:
    2c5a:	97 f9       	bld	r25, 7
    2c5c:	9f 67       	ori	r25, 0x7F	; 127
    2c5e:	80 e8       	ldi	r24, 0x80	; 128
    2c60:	70 e0       	ldi	r23, 0x00	; 0
    2c62:	60 e0       	ldi	r22, 0x00	; 0
    2c64:	08 95       	ret

00002c66 <__fp_nan>:
    2c66:	9f ef       	ldi	r25, 0xFF	; 255
    2c68:	80 ec       	ldi	r24, 0xC0	; 192
    2c6a:	08 95       	ret

00002c6c <__fp_pscA>:
    2c6c:	00 24       	eor	r0, r0
    2c6e:	0a 94       	dec	r0
    2c70:	16 16       	cp	r1, r22
    2c72:	17 06       	cpc	r1, r23
    2c74:	18 06       	cpc	r1, r24
    2c76:	09 06       	cpc	r0, r25
    2c78:	08 95       	ret

00002c7a <__fp_pscB>:
    2c7a:	00 24       	eor	r0, r0
    2c7c:	0a 94       	dec	r0
    2c7e:	12 16       	cp	r1, r18
    2c80:	13 06       	cpc	r1, r19
    2c82:	14 06       	cpc	r1, r20
    2c84:	05 06       	cpc	r0, r21
    2c86:	08 95       	ret

00002c88 <__fp_round>:
    2c88:	09 2e       	mov	r0, r25
    2c8a:	03 94       	inc	r0
    2c8c:	00 0c       	add	r0, r0
    2c8e:	11 f4       	brne	.+4      	; 0x2c94 <__fp_round+0xc>
    2c90:	88 23       	and	r24, r24
    2c92:	52 f0       	brmi	.+20     	; 0x2ca8 <__fp_round+0x20>
    2c94:	bb 0f       	add	r27, r27
    2c96:	40 f4       	brcc	.+16     	; 0x2ca8 <__fp_round+0x20>
    2c98:	bf 2b       	or	r27, r31
    2c9a:	11 f4       	brne	.+4      	; 0x2ca0 <__fp_round+0x18>
    2c9c:	60 ff       	sbrs	r22, 0
    2c9e:	04 c0       	rjmp	.+8      	; 0x2ca8 <__fp_round+0x20>
    2ca0:	6f 5f       	subi	r22, 0xFF	; 255
    2ca2:	7f 4f       	sbci	r23, 0xFF	; 255
    2ca4:	8f 4f       	sbci	r24, 0xFF	; 255
    2ca6:	9f 4f       	sbci	r25, 0xFF	; 255
    2ca8:	08 95       	ret

00002caa <__fp_split3>:
    2caa:	57 fd       	sbrc	r21, 7
    2cac:	90 58       	subi	r25, 0x80	; 128
    2cae:	44 0f       	add	r20, r20
    2cb0:	55 1f       	adc	r21, r21
    2cb2:	59 f0       	breq	.+22     	; 0x2cca <__fp_splitA+0x10>
    2cb4:	5f 3f       	cpi	r21, 0xFF	; 255
    2cb6:	71 f0       	breq	.+28     	; 0x2cd4 <__fp_splitA+0x1a>
    2cb8:	47 95       	ror	r20

00002cba <__fp_splitA>:
    2cba:	88 0f       	add	r24, r24
    2cbc:	97 fb       	bst	r25, 7
    2cbe:	99 1f       	adc	r25, r25
    2cc0:	61 f0       	breq	.+24     	; 0x2cda <__fp_splitA+0x20>
    2cc2:	9f 3f       	cpi	r25, 0xFF	; 255
    2cc4:	79 f0       	breq	.+30     	; 0x2ce4 <__fp_splitA+0x2a>
    2cc6:	87 95       	ror	r24
    2cc8:	08 95       	ret
    2cca:	12 16       	cp	r1, r18
    2ccc:	13 06       	cpc	r1, r19
    2cce:	14 06       	cpc	r1, r20
    2cd0:	55 1f       	adc	r21, r21
    2cd2:	f2 cf       	rjmp	.-28     	; 0x2cb8 <__fp_split3+0xe>
    2cd4:	46 95       	lsr	r20
    2cd6:	f1 df       	rcall	.-30     	; 0x2cba <__fp_splitA>
    2cd8:	08 c0       	rjmp	.+16     	; 0x2cea <__fp_splitA+0x30>
    2cda:	16 16       	cp	r1, r22
    2cdc:	17 06       	cpc	r1, r23
    2cde:	18 06       	cpc	r1, r24
    2ce0:	99 1f       	adc	r25, r25
    2ce2:	f1 cf       	rjmp	.-30     	; 0x2cc6 <__fp_splitA+0xc>
    2ce4:	86 95       	lsr	r24
    2ce6:	71 05       	cpc	r23, r1
    2ce8:	61 05       	cpc	r22, r1
    2cea:	08 94       	sec
    2cec:	08 95       	ret

00002cee <__fp_zero>:
    2cee:	e8 94       	clt

00002cf0 <__fp_szero>:
    2cf0:	bb 27       	eor	r27, r27
    2cf2:	66 27       	eor	r22, r22
    2cf4:	77 27       	eor	r23, r23
    2cf6:	cb 01       	movw	r24, r22
    2cf8:	97 f9       	bld	r25, 7
    2cfa:	08 95       	ret

00002cfc <__gesf2>:
    2cfc:	0e 94 09 16 	call	0x2c12	; 0x2c12 <__fp_cmp>
    2d00:	08 f4       	brcc	.+2      	; 0x2d04 <__gesf2+0x8>
    2d02:	8f ef       	ldi	r24, 0xFF	; 255
    2d04:	08 95       	ret

00002d06 <__mulsf3>:
    2d06:	0e 94 96 16 	call	0x2d2c	; 0x2d2c <__mulsf3x>
    2d0a:	0c 94 44 16 	jmp	0x2c88	; 0x2c88 <__fp_round>
    2d0e:	0e 94 36 16 	call	0x2c6c	; 0x2c6c <__fp_pscA>
    2d12:	38 f0       	brcs	.+14     	; 0x2d22 <__mulsf3+0x1c>
    2d14:	0e 94 3d 16 	call	0x2c7a	; 0x2c7a <__fp_pscB>
    2d18:	20 f0       	brcs	.+8      	; 0x2d22 <__mulsf3+0x1c>
    2d1a:	95 23       	and	r25, r21
    2d1c:	11 f0       	breq	.+4      	; 0x2d22 <__mulsf3+0x1c>
    2d1e:	0c 94 2d 16 	jmp	0x2c5a	; 0x2c5a <__fp_inf>
    2d22:	0c 94 33 16 	jmp	0x2c66	; 0x2c66 <__fp_nan>
    2d26:	11 24       	eor	r1, r1
    2d28:	0c 94 78 16 	jmp	0x2cf0	; 0x2cf0 <__fp_szero>

00002d2c <__mulsf3x>:
    2d2c:	0e 94 55 16 	call	0x2caa	; 0x2caa <__fp_split3>
    2d30:	70 f3       	brcs	.-36     	; 0x2d0e <__mulsf3+0x8>

00002d32 <__mulsf3_pse>:
    2d32:	95 9f       	mul	r25, r21
    2d34:	c1 f3       	breq	.-16     	; 0x2d26 <__mulsf3+0x20>
    2d36:	95 0f       	add	r25, r21
    2d38:	50 e0       	ldi	r21, 0x00	; 0
    2d3a:	55 1f       	adc	r21, r21
    2d3c:	62 9f       	mul	r22, r18
    2d3e:	f0 01       	movw	r30, r0
    2d40:	72 9f       	mul	r23, r18
    2d42:	bb 27       	eor	r27, r27
    2d44:	f0 0d       	add	r31, r0
    2d46:	b1 1d       	adc	r27, r1
    2d48:	63 9f       	mul	r22, r19
    2d4a:	aa 27       	eor	r26, r26
    2d4c:	f0 0d       	add	r31, r0
    2d4e:	b1 1d       	adc	r27, r1
    2d50:	aa 1f       	adc	r26, r26
    2d52:	64 9f       	mul	r22, r20
    2d54:	66 27       	eor	r22, r22
    2d56:	b0 0d       	add	r27, r0
    2d58:	a1 1d       	adc	r26, r1
    2d5a:	66 1f       	adc	r22, r22
    2d5c:	82 9f       	mul	r24, r18
    2d5e:	22 27       	eor	r18, r18
    2d60:	b0 0d       	add	r27, r0
    2d62:	a1 1d       	adc	r26, r1
    2d64:	62 1f       	adc	r22, r18
    2d66:	73 9f       	mul	r23, r19
    2d68:	b0 0d       	add	r27, r0
    2d6a:	a1 1d       	adc	r26, r1
    2d6c:	62 1f       	adc	r22, r18
    2d6e:	83 9f       	mul	r24, r19
    2d70:	a0 0d       	add	r26, r0
    2d72:	61 1d       	adc	r22, r1
    2d74:	22 1f       	adc	r18, r18
    2d76:	74 9f       	mul	r23, r20
    2d78:	33 27       	eor	r19, r19
    2d7a:	a0 0d       	add	r26, r0
    2d7c:	61 1d       	adc	r22, r1
    2d7e:	23 1f       	adc	r18, r19
    2d80:	84 9f       	mul	r24, r20
    2d82:	60 0d       	add	r22, r0
    2d84:	21 1d       	adc	r18, r1
    2d86:	82 2f       	mov	r24, r18
    2d88:	76 2f       	mov	r23, r22
    2d8a:	6a 2f       	mov	r22, r26
    2d8c:	11 24       	eor	r1, r1
    2d8e:	9f 57       	subi	r25, 0x7F	; 127
    2d90:	50 40       	sbci	r21, 0x00	; 0
    2d92:	9a f0       	brmi	.+38     	; 0x2dba <__mulsf3_pse+0x88>
    2d94:	f1 f0       	breq	.+60     	; 0x2dd2 <__mulsf3_pse+0xa0>
    2d96:	88 23       	and	r24, r24
    2d98:	4a f0       	brmi	.+18     	; 0x2dac <__mulsf3_pse+0x7a>
    2d9a:	ee 0f       	add	r30, r30
    2d9c:	ff 1f       	adc	r31, r31
    2d9e:	bb 1f       	adc	r27, r27
    2da0:	66 1f       	adc	r22, r22
    2da2:	77 1f       	adc	r23, r23
    2da4:	88 1f       	adc	r24, r24
    2da6:	91 50       	subi	r25, 0x01	; 1
    2da8:	50 40       	sbci	r21, 0x00	; 0
    2daa:	a9 f7       	brne	.-22     	; 0x2d96 <__mulsf3_pse+0x64>
    2dac:	9e 3f       	cpi	r25, 0xFE	; 254
    2dae:	51 05       	cpc	r21, r1
    2db0:	80 f0       	brcs	.+32     	; 0x2dd2 <__mulsf3_pse+0xa0>
    2db2:	0c 94 2d 16 	jmp	0x2c5a	; 0x2c5a <__fp_inf>
    2db6:	0c 94 78 16 	jmp	0x2cf0	; 0x2cf0 <__fp_szero>
    2dba:	5f 3f       	cpi	r21, 0xFF	; 255
    2dbc:	e4 f3       	brlt	.-8      	; 0x2db6 <__mulsf3_pse+0x84>
    2dbe:	98 3e       	cpi	r25, 0xE8	; 232
    2dc0:	d4 f3       	brlt	.-12     	; 0x2db6 <__mulsf3_pse+0x84>
    2dc2:	86 95       	lsr	r24
    2dc4:	77 95       	ror	r23
    2dc6:	67 95       	ror	r22
    2dc8:	b7 95       	ror	r27
    2dca:	f7 95       	ror	r31
    2dcc:	e7 95       	ror	r30
    2dce:	9f 5f       	subi	r25, 0xFF	; 255
    2dd0:	c1 f7       	brne	.-16     	; 0x2dc2 <__mulsf3_pse+0x90>
    2dd2:	fe 2b       	or	r31, r30
    2dd4:	88 0f       	add	r24, r24
    2dd6:	91 1d       	adc	r25, r1
    2dd8:	96 95       	lsr	r25
    2dda:	87 95       	ror	r24
    2ddc:	97 f9       	bld	r25, 7
    2dde:	08 95       	ret

00002de0 <__unordsf2>:
    2de0:	0e 94 09 16 	call	0x2c12	; 0x2c12 <__fp_cmp>
    2de4:	88 0b       	sbc	r24, r24
    2de6:	99 0b       	sbc	r25, r25
    2de8:	08 95       	ret

00002dea <abort>:
    2dea:	81 e0       	ldi	r24, 0x01	; 1
    2dec:	90 e0       	ldi	r25, 0x00	; 0
    2dee:	f8 94       	cli
    2df0:	0c 94 03 17 	jmp	0x2e06	; 0x2e06 <_exit>

00002df4 <strlen>:
    2df4:	fc 01       	movw	r30, r24
    2df6:	01 90       	ld	r0, Z+
    2df8:	00 20       	and	r0, r0
    2dfa:	e9 f7       	brne	.-6      	; 0x2df6 <strlen+0x2>
    2dfc:	80 95       	com	r24
    2dfe:	90 95       	com	r25
    2e00:	8e 0f       	add	r24, r30
    2e02:	9f 1f       	adc	r25, r31
    2e04:	08 95       	ret

00002e06 <_exit>:
    2e06:	f8 94       	cli

00002e08 <__stop_program>:
    2e08:	ff cf       	rjmp	.-2      	; 0x2e08 <__stop_program>
