
Geocache.elf:     file format elf32-avr

Sections:
Idx Name          Size      VMA       LMA       File off  Algn
  0 .data         000000a6  00800100  00001b40  00001bd4  2**0
                  CONTENTS, ALLOC, LOAD, DATA
  1 .text         00001b40  00000000  00000000  00000094  2**1
                  CONTENTS, ALLOC, LOAD, READONLY, CODE
  2 .bss          000001cb  008001a6  008001a6  00001c7a  2**0
                  ALLOC
  3 .comment      0000005c  00000000  00000000  00001c7a  2**0
                  CONTENTS, READONLY
  4 .note.gnu.avr.deviceinfo 00000040  00000000  00000000  00001cd8  2**2
                  CONTENTS, READONLY
  5 .debug_aranges 000000d0  00000000  00000000  00001d18  2**0
                  CONTENTS, READONLY, DEBUGGING
  6 .debug_info   00002bd7  00000000  00000000  00001de8  2**0
                  CONTENTS, READONLY, DEBUGGING
  7 .debug_abbrev 000008fb  00000000  00000000  000049bf  2**0
                  CONTENTS, READONLY, DEBUGGING
  8 .debug_line   000009d7  00000000  00000000  000052ba  2**0
                  CONTENTS, READONLY, DEBUGGING
  9 .debug_frame  0000023c  00000000  00000000  00005c94  2**2
                  CONTENTS, READONLY, DEBUGGING
 10 .debug_str    000016d7  00000000  00000000  00005ed0  2**0
                  CONTENTS, READONLY, DEBUGGING
 11 .debug_loc    00000ea2  00000000  00000000  000075a7  2**0
                  CONTENTS, READONLY, DEBUGGING
 12 .debug_ranges 00000110  00000000  00000000  00008449  2**0
                  CONTENTS, READONLY, DEBUGGING

Disassembly of section .text:

00000000 <__vectors>:
       0:	0c 94 64 00 	jmp	0xc8	; 0xc8 <__dtors_end>
       4:	0c 94 8c 00 	jmp	0x118	; 0x118 <__bad_interrupt>
       8:	0c 94 8c 00 	jmp	0x118	; 0x118 <__bad_interrupt>
       c:	0c 94 5e 08 	jmp	0x10bc	; 0x10bc <__vector_3>
      10:	0c 94 5e 08 	jmp	0x10bc	; 0x10bc <__vector_3>
      14:	0c 94 5e 08 	jmp	0x10bc	; 0x10bc <__vector_3>
      18:	0c 94 8c 00 	jmp	0x118	; 0x118 <__bad_interrupt>
      1c:	0c 94 8c 00 	jmp	0x118	; 0x118 <__bad_interrupt>
      20:	0c 94 8c 00 	jmp	0x118	; 0x118 <__bad_interrupt>
      24:	0c 94 8c 00 	jmp	0x118	; 0x118 <__bad_interrupt>
      28:	0c 94 8c 00 	jmp	0x118	; 0x118 <__bad_interrupt>
      2c:	0c 94 8c 00 	jmp	0x118	; 0x118 <__bad_interrupt>
      30:	0c 94 8c 00 	jmp	0x118	; 0x118 <__bad_interrupt>
      34:	0c 94 8c 00 	jmp	0x118	; 0x118 <__bad_interrupt>
      38:	0c 94 8c 00 	jmp	0x118	; 0x118 <__bad_interrupt>
      3c:	0c 94 8c 00 	jmp	0x118	; 0x118 <__bad_interrupt>
      40:	0c 94 73 06 	jmp	0xce6	; 0xce6 <__vector_16>
      44:	0c 94 8c 00 	jmp	0x118	; 0x118 <__bad_interrupt>
      48:	0c 94 fc 04 	jmp	0x9f8	; 0x9f8 <__vector_18>
      4c:	0c 94 2a 05 	jmp	0xa54	; 0xa54 <__vector_19>
      50:	0c 94 8c 00 	jmp	0x118	; 0x118 <__bad_interrupt>
      54:	0c 94 8c 00 	jmp	0x118	; 0x118 <__bad_interrupt>
      58:	0c 94 8c 00 	jmp	0x118	; 0x118 <__bad_interrupt>
      5c:	0c 94 8c 00 	jmp	0x118	; 0x118 <__bad_interrupt>
      60:	0c 94 8c 00 	jmp	0x118	; 0x118 <__bad_interrupt>
      64:	0c 94 8c 00 	jmp	0x118	; 0x118 <__bad_interrupt>

00000068 <__trampolines_end>:
      68:	00 00       	nop
      6a:	00 00       	nop
      6c:	24 00       	.word	0x0024	; ????
      6e:	27 00       	.word	0x0027	; ????
      70:	2a 00       	.word	0x002a	; ????

00000072 <port_to_output_PGM>:
      72:	00 00 00 00 25 00 28 00 2b 00                       ....%.(.+.

0000007c <port_to_input_PGM>:
      7c:	00 00 00 00 23 00 26 00 29 00                       ....#.&.).

00000086 <digital_pin_to_port_PGM>:
      86:	04 04 04 04 04 04 04 04 02 02 02 02 02 02 03 03     ................
      96:	03 03 03 03                                         ....

0000009a <digital_pin_to_bit_mask_PGM>:
      9a:	01 02 04 08 10 20 40 80 01 02 04 08 10 20 01 02     ..... @...... ..
      aa:	04 08 10 20                                         ... 

000000ae <digital_pin_to_timer_PGM>:
      ae:	00 00 00 08 00 02 01 00 00 03 04 07 00 00 00 00     ................
      be:	00 00 00 00                                         ....

000000c2 <__ctors_start>:
      c2:	8e 00       	.word	0x008e	; ????
      c4:	93 05       	cpc	r25, r3

000000c6 <__ctors_end>:
      c6:	96 00       	.word	0x0096	; ????

000000c8 <__dtors_end>:
      c8:	11 24       	eor	r1, r1
      ca:	1f be       	out	0x3f, r1	; 63
      cc:	cf ef       	ldi	r28, 0xFF	; 255
      ce:	d8 e0       	ldi	r29, 0x08	; 8
      d0:	de bf       	out	0x3e, r29	; 62
      d2:	cd bf       	out	0x3d, r28	; 61

000000d4 <__do_copy_data>:
      d4:	11 e0       	ldi	r17, 0x01	; 1
      d6:	a0 e0       	ldi	r26, 0x00	; 0
      d8:	b1 e0       	ldi	r27, 0x01	; 1
      da:	e0 e4       	ldi	r30, 0x40	; 64
      dc:	fb e1       	ldi	r31, 0x1B	; 27
      de:	02 c0       	rjmp	.+4      	; 0xe4 <__do_copy_data+0x10>
      e0:	05 90       	lpm	r0, Z+
      e2:	0d 92       	st	X+, r0
      e4:	a6 3a       	cpi	r26, 0xA6	; 166
      e6:	b1 07       	cpc	r27, r17
      e8:	d9 f7       	brne	.-10     	; 0xe0 <__do_copy_data+0xc>

000000ea <__do_clear_bss>:
      ea:	23 e0       	ldi	r18, 0x03	; 3
      ec:	a6 ea       	ldi	r26, 0xA6	; 166
      ee:	b1 e0       	ldi	r27, 0x01	; 1
      f0:	01 c0       	rjmp	.+2      	; 0xf4 <.do_clear_bss_start>

000000f2 <.do_clear_bss_loop>:
      f2:	1d 92       	st	X+, r1

000000f4 <.do_clear_bss_start>:
      f4:	a1 37       	cpi	r26, 0x71	; 113
      f6:	b2 07       	cpc	r27, r18
      f8:	e1 f7       	brne	.-8      	; 0xf2 <.do_clear_bss_loop>

000000fa <__do_global_ctors>:
      fa:	10 e0       	ldi	r17, 0x00	; 0
      fc:	c3 e6       	ldi	r28, 0x63	; 99
      fe:	d0 e0       	ldi	r29, 0x00	; 0
     100:	04 c0       	rjmp	.+8      	; 0x10a <__do_global_ctors+0x10>
     102:	21 97       	sbiw	r28, 0x01	; 1
     104:	fe 01       	movw	r30, r28
     106:	0e 94 01 0c 	call	0x1802	; 0x1802 <__tablejump2__>
     10a:	c1 36       	cpi	r28, 0x61	; 97
     10c:	d1 07       	cpc	r29, r17
     10e:	c9 f7       	brne	.-14     	; 0x102 <__do_global_ctors+0x8>
     110:	0e 94 12 01 	call	0x224	; 0x224 <main>
     114:	0c 94 93 0d 	jmp	0x1b26	; 0x1b26 <__do_global_dtors>

00000118 <__bad_interrupt>:
     118:	0c 94 00 00 	jmp	0	; 0x0 <__vectors>

0000011c <_GLOBAL__sub_I_cstr>:
#define GPS_RX_BUFSIZ	128
char cstr[GPS_RX_BUFSIZ];

#if GPS_ON
#include "SoftwareSerial.h"
SoftwareSerial gps(GPS_RX, GPS_TX);
     11c:	20 e0       	ldi	r18, 0x00	; 0
     11e:	47 e0       	ldi	r20, 0x07	; 7
     120:	68 e0       	ldi	r22, 0x08	; 8
     122:	86 ea       	ldi	r24, 0xA6	; 166
     124:	91 e0       	ldi	r25, 0x01	; 1
     126:	0e 94 31 09 	call	0x1262	; 0x1262 <_ZN14SoftwareSerialC1Ehhb>
     12a:	08 95       	ret

0000012c <_GLOBAL__sub_D_cstr>:
     12c:	86 ea       	ldi	r24, 0xA6	; 166
     12e:	91 e0       	ldi	r25, 0x01	; 1
     130:	0e 94 d8 08 	call	0x11b0	; 0x11b0 <_ZN14SoftwareSerialD1Ev>
     134:	08 95       	ret

00000136 <_Z13getGPSMessagev>:
Return:
	none
	
*/
void getGPSMessage(void)
{
     136:	9f 92       	push	r9
     138:	af 92       	push	r10
     13a:	bf 92       	push	r11
     13c:	df 92       	push	r13
     13e:	ef 92       	push	r14
     140:	ff 92       	push	r15
     142:	0f 93       	push	r16
     144:	1f 93       	push	r17
     146:	cf 93       	push	r28
     148:	df 93       	push	r29
	uint8_t x=0, y=0, isum=0;

	memset(cstr, 0, sizeof(cstr));
     14a:	80 e8       	ldi	r24, 0x80	; 128
     14c:	e5 ec       	ldi	r30, 0xC5	; 197
     14e:	f1 e0       	ldi	r31, 0x01	; 1
     150:	df 01       	movw	r26, r30
     152:	1d 92       	st	X+, r1
     154:	8a 95       	dec	r24
     156:	e9 f7       	brne	.-6      	; 0x152 <_Z13getGPSMessagev+0x1c>
				x = 0;
				cstr[x] = '$';
			}
			
			// if complete message
			if ((cstr[0] == '$') && (cstr[x++] == '\n'))
     158:	8f 01       	movw	r16, r30
			
			// if multiple inline messages, then restart
			if ((x != 0) && (cstr[x] == '$'))
			{
				x = 0;
				cstr[x] = '$';
     15a:	0f 2e       	mov	r0, r31
     15c:	f4 e2       	ldi	r31, 0x24	; 36
     15e:	ff 2e       	mov	r15, r31
     160:	f0 2d       	mov	r31, r0
			}
			
			// if complete message
			if ((cstr[0] == '$') && (cstr[x++] == '\n'))
     162:	99 24       	eor	r9, r9
     164:	93 94       	inc	r9
     166:	e1 2c       	mov	r14, r1
     168:	d9 2c       	mov	r13, r9
								
				// convert hex checksum to binary
				isum = strtol(&cstr[x-4], NULL, 16);
				
				// reverse checksum
				for (y=1; y < (x-5); y++) isum ^= cstr[y];
     16a:	aa 24       	eor	r10, r10
     16c:	a3 94       	inc	r10
     16e:	b1 2c       	mov	r11, r1
				x = 0;
				cstr[x] = '$';
			}
			
			// if complete message
			if ((cstr[0] == '$') && (cstr[x++] == '\n'))
     170:	ce 2d       	mov	r28, r14
     172:	01 c0       	rjmp	.+2      	; 0x176 <_Z13getGPSMessagev+0x40>
     174:	c8 2f       	mov	r28, r24
	memset(cstr, 0, sizeof(cstr));
		
	// get nmea string
	while (true)
	{
		if (gps.peek() != -1)
     176:	86 ea       	ldi	r24, 0xA6	; 166
     178:	91 e0       	ldi	r25, 0x01	; 1
     17a:	0e 94 ef 07 	call	0xfde	; 0xfde <_ZN14SoftwareSerial4peekEv>
     17e:	01 96       	adiw	r24, 0x01	; 1
     180:	d1 f3       	breq	.-12     	; 0x176 <_Z13getGPSMessagev+0x40>
		{
			cstr[x] = gps.read();
     182:	86 ea       	ldi	r24, 0xA6	; 166
     184:	91 e0       	ldi	r25, 0x01	; 1
     186:	0e 94 79 07 	call	0xef2	; 0xef2 <_ZN14SoftwareSerial4readEv>
     18a:	ec 2f       	mov	r30, r28
     18c:	f0 e0       	ldi	r31, 0x00	; 0
     18e:	eb 53       	subi	r30, 0x3B	; 59
     190:	fe 4f       	sbci	r31, 0xFE	; 254
     192:	80 83       	st	Z, r24
			
			// if multiple inline messages, then restart
			if ((x != 0) && (cstr[x] == '$'))
     194:	cc 23       	and	r28, r28
     196:	31 f0       	breq	.+12     	; 0x1a4 <_Z13getGPSMessagev+0x6e>
     198:	84 32       	cpi	r24, 0x24	; 36
     19a:	21 f4       	brne	.+8      	; 0x1a4 <_Z13getGPSMessagev+0x6e>
			{
				x = 0;
				cstr[x] = '$';
     19c:	f8 01       	movw	r30, r16
     19e:	f0 82       	st	Z, r15
			}
			
			// if complete message
			if ((cstr[0] == '$') && (cstr[x++] == '\n'))
     1a0:	cd 2d       	mov	r28, r13
     1a2:	e9 cf       	rjmp	.-46     	; 0x176 <_Z13getGPSMessagev+0x40>
     1a4:	d8 01       	movw	r26, r16
     1a6:	8c 91       	ld	r24, X
     1a8:	84 32       	cpi	r24, 0x24	; 36
     1aa:	29 f7       	brne	.-54     	; 0x176 <_Z13getGPSMessagev+0x40>
     1ac:	81 e0       	ldi	r24, 0x01	; 1
     1ae:	8c 0f       	add	r24, r28
     1b0:	ec 2f       	mov	r30, r28
     1b2:	f0 e0       	ldi	r31, 0x00	; 0
     1b4:	eb 53       	subi	r30, 0x3B	; 59
     1b6:	fe 4f       	sbci	r31, 0xFE	; 254
     1b8:	90 81       	ld	r25, Z
     1ba:	9a 30       	cpi	r25, 0x0A	; 10
     1bc:	d9 f6       	brne	.-74     	; 0x174 <_Z13getGPSMessagev+0x3e>
			{
				// nul terminate string before /r/n
				cstr[x-2] = 0;
     1be:	90 e0       	ldi	r25, 0x00	; 0
     1c0:	fc 01       	movw	r30, r24
     1c2:	ed 53       	subi	r30, 0x3D	; 61
     1c4:	fe 4f       	sbci	r31, 0xFE	; 254
     1c6:	10 82       	st	Z, r1

				// if checksum not found
				if (cstr[x-5] != '*') 
     1c8:	ec 01       	movw	r28, r24
     1ca:	25 97       	sbiw	r28, 0x05	; 5
     1cc:	fe 01       	movw	r30, r28
     1ce:	eb 53       	subi	r30, 0x3B	; 59
     1d0:	fe 4f       	sbci	r31, 0xFE	; 254
     1d2:	20 81       	ld	r18, Z
     1d4:	2a 32       	cpi	r18, 0x2A	; 42
     1d6:	61 f6       	brne	.-104    	; 0x170 <_Z13getGPSMessagev+0x3a>
					x = 0;
					continue;
				}
								
				// convert hex checksum to binary
				isum = strtol(&cstr[x-4], NULL, 16);
     1d8:	40 e1       	ldi	r20, 0x10	; 16
     1da:	50 e0       	ldi	r21, 0x00	; 0
     1dc:	60 e0       	ldi	r22, 0x00	; 0
     1de:	70 e0       	ldi	r23, 0x00	; 0
     1e0:	8f 53       	subi	r24, 0x3F	; 63
     1e2:	9e 4f       	sbci	r25, 0xFE	; 254
     1e4:	0e 94 07 0c 	call	0x180e	; 0x180e <strtol>
				
				// reverse checksum
				for (y=1; y < (x-5); y++) isum ^= cstr[y];
     1e8:	c2 30       	cpi	r28, 0x02	; 2
     1ea:	d1 05       	cpc	r29, r1
     1ec:	74 f0       	brlt	.+28     	; 0x20a <_Z13getGPSMessagev+0xd4>
     1ee:	8a 2d       	mov	r24, r10
     1f0:	9b 2d       	mov	r25, r11
     1f2:	29 2d       	mov	r18, r9
     1f4:	fc 01       	movw	r30, r24
     1f6:	eb 53       	subi	r30, 0x3B	; 59
     1f8:	fe 4f       	sbci	r31, 0xFE	; 254
     1fa:	80 81       	ld	r24, Z
     1fc:	68 27       	eor	r22, r24
     1fe:	2f 5f       	subi	r18, 0xFF	; 255
     200:	82 2f       	mov	r24, r18
     202:	90 e0       	ldi	r25, 0x00	; 0
     204:	8c 17       	cp	r24, r28
     206:	9d 07       	cpc	r25, r29
     208:	ac f3       	brlt	.-22     	; 0x1f4 <_Z13getGPSMessagev+0xbe>
				
				// if invalid checksum
				if (isum != 0) 
     20a:	61 11       	cpse	r22, r1
     20c:	b1 cf       	rjmp	.-158    	; 0x170 <_Z13getGPSMessagev+0x3a>
				// else valid message
				break;
			}
		}
	}
}
     20e:	df 91       	pop	r29
     210:	cf 91       	pop	r28
     212:	1f 91       	pop	r17
     214:	0f 91       	pop	r16
     216:	ff 90       	pop	r15
     218:	ef 90       	pop	r14
     21a:	df 90       	pop	r13
     21c:	bf 90       	pop	r11
     21e:	af 90       	pop	r10
     220:	9f 90       	pop	r9
     222:	08 95       	ret

00000224 <main>:
{
	// variables
	uint8_t target = 0;
	float distance = 0.0, heading = 0.0;

	init();
     224:	0e 94 e5 06 	call	0xdca	; 0xdca <init>
  public:
    inline HardwareSerial(
      volatile uint8_t *ubrrh, volatile uint8_t *ubrrl,
      volatile uint8_t *ucsra, volatile uint8_t *ucsrb,
      volatile uint8_t *ucsrc, volatile uint8_t *udr);
    void begin(unsigned long baud) { begin(baud, SERIAL_8N1); }
     228:	26 e0       	ldi	r18, 0x06	; 6
     22a:	40 e0       	ldi	r20, 0x00	; 0
     22c:	52 ec       	ldi	r21, 0xC2	; 194
     22e:	61 e0       	ldi	r22, 0x01	; 1
     230:	70 e0       	ldi	r23, 0x00	; 0
     232:	85 e4       	ldi	r24, 0x45	; 69
     234:	92 e0       	ldi	r25, 0x02	; 2
     236:	0e 94 a5 01 	call	0x34a	; 0x34a <_ZN14HardwareSerial5beginEmh>
	*/
	#endif
	
	// enable GPS sending GPRMC message
	#if GPS_ON
	gps.begin(9600);
     23a:	40 e8       	ldi	r20, 0x80	; 128
     23c:	55 e2       	ldi	r21, 0x25	; 37
     23e:	60 e0       	ldi	r22, 0x00	; 0
     240:	70 e0       	ldi	r23, 0x00	; 0
     242:	86 ea       	ldi	r24, 0xA6	; 166
     244:	91 e0       	ldi	r25, 0x01	; 1
     246:	0e 94 5c 09 	call	0x12b8	; 0x12b8 <_ZN14SoftwareSerial5beginEl>
	gps.println(PMTK_SET_NMEA_UPDATE_1HZ);
     24a:	61 e1       	ldi	r22, 0x11	; 17
     24c:	71 e0       	ldi	r23, 0x01	; 1
     24e:	86 ea       	ldi	r24, 0xA6	; 166
     250:	91 e0       	ldi	r25, 0x01	; 1
     252:	0e 94 49 06 	call	0xc92	; 0xc92 <_ZN5Print7printlnEPKc>
	gps.println(PMTK_API_SET_FIX_CTL_1HZ);
     256:	62 e2       	ldi	r22, 0x22	; 34
     258:	71 e0       	ldi	r23, 0x01	; 1
     25a:	86 ea       	ldi	r24, 0xA6	; 166
     25c:	91 e0       	ldi	r25, 0x01	; 1
     25e:	0e 94 49 06 	call	0xc92	; 0xc92 <_ZN5Print7printlnEPKc>
	gps.println(PMTK_SET_NMEA_OUTPUT_RMC);
     262:	6b e3       	ldi	r22, 0x3B	; 59
     264:	71 e0       	ldi	r23, 0x01	; 1
     266:	86 ea       	ldi	r24, 0xA6	; 166
     268:	91 e0       	ldi	r25, 0x01	; 1
     26a:	0e 94 49 06 	call	0xc92	; 0xc92 <_ZN5Print7printlnEPKc>
	while (true)
	{
		// if button pressed, set new target
		
		// returns with message once a second
		getGPSMessage();
     26e:	0e 94 9b 00 	call	0x136	; 0x136 <_Z13getGPSMessagev>
		setNeoPixel(target, heading, distance);
		#endif		

		#if TRM_ON
		// print debug information to Serial Terminal
		Serial.println(cstr);	
     272:	65 ec       	ldi	r22, 0xC5	; 197
     274:	71 e0       	ldi	r23, 0x01	; 1
     276:	85 e4       	ldi	r24, 0x45	; 69
     278:	92 e0       	ldi	r25, 0x02	; 2
     27a:	0e 94 49 06 	call	0xc92	; 0xc92 <_ZN5Print7printlnEPKc>
		// print debug information to OneSheeld Terminal
		if (serialEventRun) serialEventRun();
		#endif		
	}
	
	return(false);
     27e:	f7 cf       	rjmp	.-18     	; 0x26e <main+0x4a>

00000280 <_ZN14HardwareSerial17_tx_udr_empty_irqEv>:
     280:	cf 93       	push	r28
     282:	df 93       	push	r29
     284:	00 d0       	rcall	.+0      	; 0x286 <_ZN14HardwareSerial17_tx_udr_empty_irqEv+0x6>
     286:	1f 92       	push	r1
     288:	cd b7       	in	r28, 0x3d	; 61
     28a:	de b7       	in	r29, 0x3e	; 62
     28c:	9b 83       	std	Y+3, r25	; 0x03
     28e:	8a 83       	std	Y+2, r24	; 0x02
     290:	8a 81       	ldd	r24, Y+2	; 0x02
     292:	9b 81       	ldd	r25, Y+3	; 0x03
     294:	fc 01       	movw	r30, r24
     296:	84 8d       	ldd	r24, Z+28	; 0x1c
     298:	88 2f       	mov	r24, r24
     29a:	90 e0       	ldi	r25, 0x00	; 0
     29c:	2a 81       	ldd	r18, Y+2	; 0x02
     29e:	3b 81       	ldd	r19, Y+3	; 0x03
     2a0:	82 0f       	add	r24, r18
     2a2:	93 1f       	adc	r25, r19
     2a4:	83 5a       	subi	r24, 0xA3	; 163
     2a6:	9f 4f       	sbci	r25, 0xFF	; 255
     2a8:	fc 01       	movw	r30, r24
     2aa:	80 81       	ld	r24, Z
     2ac:	89 83       	std	Y+1, r24	; 0x01
     2ae:	8a 81       	ldd	r24, Y+2	; 0x02
     2b0:	9b 81       	ldd	r25, Y+3	; 0x03
     2b2:	fc 01       	movw	r30, r24
     2b4:	84 8d       	ldd	r24, Z+28	; 0x1c
     2b6:	88 2f       	mov	r24, r24
     2b8:	90 e0       	ldi	r25, 0x00	; 0
     2ba:	01 96       	adiw	r24, 0x01	; 1
     2bc:	8f 77       	andi	r24, 0x7F	; 127
     2be:	90 78       	andi	r25, 0x80	; 128
     2c0:	99 23       	and	r25, r25
     2c2:	24 f4       	brge	.+8      	; 0x2cc <_ZN14HardwareSerial17_tx_udr_empty_irqEv+0x4c>
     2c4:	01 97       	sbiw	r24, 0x01	; 1
     2c6:	80 68       	ori	r24, 0x80	; 128
     2c8:	9f 6f       	ori	r25, 0xFF	; 255
     2ca:	01 96       	adiw	r24, 0x01	; 1
     2cc:	28 2f       	mov	r18, r24
     2ce:	8a 81       	ldd	r24, Y+2	; 0x02
     2d0:	9b 81       	ldd	r25, Y+3	; 0x03
     2d2:	fc 01       	movw	r30, r24
     2d4:	24 8f       	std	Z+28, r18	; 0x1c
     2d6:	8a 81       	ldd	r24, Y+2	; 0x02
     2d8:	9b 81       	ldd	r25, Y+3	; 0x03
     2da:	fc 01       	movw	r30, r24
     2dc:	86 89       	ldd	r24, Z+22	; 0x16
     2de:	97 89       	ldd	r25, Z+23	; 0x17
     2e0:	29 81       	ldd	r18, Y+1	; 0x01
     2e2:	fc 01       	movw	r30, r24
     2e4:	20 83       	st	Z, r18
     2e6:	8a 81       	ldd	r24, Y+2	; 0x02
     2e8:	9b 81       	ldd	r25, Y+3	; 0x03
     2ea:	fc 01       	movw	r30, r24
     2ec:	80 89       	ldd	r24, Z+16	; 0x10
     2ee:	91 89       	ldd	r25, Z+17	; 0x11
     2f0:	2a 81       	ldd	r18, Y+2	; 0x02
     2f2:	3b 81       	ldd	r19, Y+3	; 0x03
     2f4:	f9 01       	movw	r30, r18
     2f6:	20 89       	ldd	r18, Z+16	; 0x10
     2f8:	31 89       	ldd	r19, Z+17	; 0x11
     2fa:	f9 01       	movw	r30, r18
     2fc:	20 81       	ld	r18, Z
     2fe:	20 64       	ori	r18, 0x40	; 64
     300:	fc 01       	movw	r30, r24
     302:	20 83       	st	Z, r18
     304:	8a 81       	ldd	r24, Y+2	; 0x02
     306:	9b 81       	ldd	r25, Y+3	; 0x03
     308:	fc 01       	movw	r30, r24
     30a:	23 8d       	ldd	r18, Z+27	; 0x1b
     30c:	8a 81       	ldd	r24, Y+2	; 0x02
     30e:	9b 81       	ldd	r25, Y+3	; 0x03
     310:	fc 01       	movw	r30, r24
     312:	94 8d       	ldd	r25, Z+28	; 0x1c
     314:	81 e0       	ldi	r24, 0x01	; 1
     316:	29 17       	cp	r18, r25
     318:	09 f0       	breq	.+2      	; 0x31c <_ZN14HardwareSerial17_tx_udr_empty_irqEv+0x9c>
     31a:	80 e0       	ldi	r24, 0x00	; 0
     31c:	88 23       	and	r24, r24
     31e:	79 f0       	breq	.+30     	; 0x33e <_ZN14HardwareSerial17_tx_udr_empty_irqEv+0xbe>
     320:	8a 81       	ldd	r24, Y+2	; 0x02
     322:	9b 81       	ldd	r25, Y+3	; 0x03
     324:	fc 01       	movw	r30, r24
     326:	82 89       	ldd	r24, Z+18	; 0x12
     328:	93 89       	ldd	r25, Z+19	; 0x13
     32a:	2a 81       	ldd	r18, Y+2	; 0x02
     32c:	3b 81       	ldd	r19, Y+3	; 0x03
     32e:	f9 01       	movw	r30, r18
     330:	22 89       	ldd	r18, Z+18	; 0x12
     332:	33 89       	ldd	r19, Z+19	; 0x13
     334:	f9 01       	movw	r30, r18
     336:	20 81       	ld	r18, Z
     338:	2f 7d       	andi	r18, 0xDF	; 223
     33a:	fc 01       	movw	r30, r24
     33c:	20 83       	st	Z, r18
     33e:	0f 90       	pop	r0
     340:	0f 90       	pop	r0
     342:	0f 90       	pop	r0
     344:	df 91       	pop	r29
     346:	cf 91       	pop	r28
     348:	08 95       	ret

0000034a <_ZN14HardwareSerial5beginEmh>:
     34a:	cf 93       	push	r28
     34c:	df 93       	push	r29
     34e:	cd b7       	in	r28, 0x3d	; 61
     350:	de b7       	in	r29, 0x3e	; 62
     352:	61 97       	sbiw	r28, 0x11	; 17
     354:	0f b6       	in	r0, 0x3f	; 63
     356:	f8 94       	cli
     358:	de bf       	out	0x3e, r29	; 62
     35a:	0f be       	out	0x3f, r0	; 63
     35c:	cd bf       	out	0x3d, r28	; 61
     35e:	9c 83       	std	Y+4, r25	; 0x04
     360:	8b 83       	std	Y+3, r24	; 0x03
     362:	4d 83       	std	Y+5, r20	; 0x05
     364:	5e 83       	std	Y+6, r21	; 0x06
     366:	6f 83       	std	Y+7, r22	; 0x07
     368:	78 87       	std	Y+8, r23	; 0x08
     36a:	29 87       	std	Y+9, r18	; 0x09
     36c:	80 e0       	ldi	r24, 0x00	; 0
     36e:	99 e0       	ldi	r25, 0x09	; 9
     370:	ad e3       	ldi	r26, 0x3D	; 61
     372:	b0 e0       	ldi	r27, 0x00	; 0
     374:	2d 81       	ldd	r18, Y+5	; 0x05
     376:	3e 81       	ldd	r19, Y+6	; 0x06
     378:	4f 81       	ldd	r20, Y+7	; 0x07
     37a:	58 85       	ldd	r21, Y+8	; 0x08
     37c:	bc 01       	movw	r22, r24
     37e:	cd 01       	movw	r24, r26
     380:	0e 94 ac 0b 	call	0x1758	; 0x1758 <__udivmodsi4>
     384:	da 01       	movw	r26, r20
     386:	c9 01       	movw	r24, r18
     388:	01 97       	sbiw	r24, 0x01	; 1
     38a:	a1 09       	sbc	r26, r1
     38c:	b1 09       	sbc	r27, r1
     38e:	b6 95       	lsr	r27
     390:	a7 95       	ror	r26
     392:	97 95       	ror	r25
     394:	87 95       	ror	r24
     396:	9a 83       	std	Y+2, r25	; 0x02
     398:	89 83       	std	Y+1, r24	; 0x01
     39a:	8b 81       	ldd	r24, Y+3	; 0x03
     39c:	9c 81       	ldd	r25, Y+4	; 0x04
     39e:	fc 01       	movw	r30, r24
     3a0:	80 89       	ldd	r24, Z+16	; 0x10
     3a2:	91 89       	ldd	r25, Z+17	; 0x11
     3a4:	22 e0       	ldi	r18, 0x02	; 2
     3a6:	fc 01       	movw	r30, r24
     3a8:	20 83       	st	Z, r18
     3aa:	8d 81       	ldd	r24, Y+5	; 0x05
     3ac:	9e 81       	ldd	r25, Y+6	; 0x06
     3ae:	af 81       	ldd	r26, Y+7	; 0x07
     3b0:	b8 85       	ldd	r27, Y+8	; 0x08
     3b2:	81 15       	cp	r24, r1
     3b4:	91 4e       	sbci	r25, 0xE1	; 225
     3b6:	a1 05       	cpc	r26, r1
     3b8:	b1 05       	cpc	r27, r1
     3ba:	29 f0       	breq	.+10     	; 0x3c6 <_ZN14HardwareSerial5beginEmh+0x7c>
     3bc:	89 81       	ldd	r24, Y+1	; 0x01
     3be:	9a 81       	ldd	r25, Y+2	; 0x02
     3c0:	81 15       	cp	r24, r1
     3c2:	90 41       	sbci	r25, 0x10	; 16
     3c4:	f0 f0       	brcs	.+60     	; 0x402 <__FUSE_REGION_LENGTH__+0x2>
     3c6:	8b 81       	ldd	r24, Y+3	; 0x03
     3c8:	9c 81       	ldd	r25, Y+4	; 0x04
     3ca:	fc 01       	movw	r30, r24
     3cc:	80 89       	ldd	r24, Z+16	; 0x10
     3ce:	91 89       	ldd	r25, Z+17	; 0x11
     3d0:	fc 01       	movw	r30, r24
     3d2:	10 82       	st	Z, r1
     3d4:	80 e8       	ldi	r24, 0x80	; 128
     3d6:	94 e8       	ldi	r25, 0x84	; 132
     3d8:	ae e1       	ldi	r26, 0x1E	; 30
     3da:	b0 e0       	ldi	r27, 0x00	; 0
     3dc:	2d 81       	ldd	r18, Y+5	; 0x05
     3de:	3e 81       	ldd	r19, Y+6	; 0x06
     3e0:	4f 81       	ldd	r20, Y+7	; 0x07
     3e2:	58 85       	ldd	r21, Y+8	; 0x08
     3e4:	bc 01       	movw	r22, r24
     3e6:	cd 01       	movw	r24, r26
     3e8:	0e 94 ac 0b 	call	0x1758	; 0x1758 <__udivmodsi4>
     3ec:	da 01       	movw	r26, r20
     3ee:	c9 01       	movw	r24, r18
     3f0:	01 97       	sbiw	r24, 0x01	; 1
     3f2:	a1 09       	sbc	r26, r1
     3f4:	b1 09       	sbc	r27, r1
     3f6:	b6 95       	lsr	r27
     3f8:	a7 95       	ror	r26
     3fa:	97 95       	ror	r25
     3fc:	87 95       	ror	r24
     3fe:	9a 83       	std	Y+2, r25	; 0x02
     400:	89 83       	std	Y+1, r24	; 0x01
     402:	8b 81       	ldd	r24, Y+3	; 0x03
     404:	9c 81       	ldd	r25, Y+4	; 0x04
     406:	fc 01       	movw	r30, r24
     408:	84 85       	ldd	r24, Z+12	; 0x0c
     40a:	95 85       	ldd	r25, Z+13	; 0x0d
     40c:	29 81       	ldd	r18, Y+1	; 0x01
     40e:	3a 81       	ldd	r19, Y+2	; 0x02
     410:	23 2f       	mov	r18, r19
     412:	33 27       	eor	r19, r19
     414:	fc 01       	movw	r30, r24
     416:	20 83       	st	Z, r18
     418:	8b 81       	ldd	r24, Y+3	; 0x03
     41a:	9c 81       	ldd	r25, Y+4	; 0x04
     41c:	fc 01       	movw	r30, r24
     41e:	86 85       	ldd	r24, Z+14	; 0x0e
     420:	97 85       	ldd	r25, Z+15	; 0x0f
     422:	29 81       	ldd	r18, Y+1	; 0x01
     424:	fc 01       	movw	r30, r24
     426:	20 83       	st	Z, r18
     428:	8b 81       	ldd	r24, Y+3	; 0x03
     42a:	9c 81       	ldd	r25, Y+4	; 0x04
     42c:	fc 01       	movw	r30, r24
     42e:	10 8e       	std	Z+24, r1	; 0x18
     430:	8b 81       	ldd	r24, Y+3	; 0x03
     432:	9c 81       	ldd	r25, Y+4	; 0x04
     434:	fc 01       	movw	r30, r24
     436:	84 89       	ldd	r24, Z+20	; 0x14
     438:	95 89       	ldd	r25, Z+21	; 0x15
     43a:	29 85       	ldd	r18, Y+9	; 0x09
     43c:	fc 01       	movw	r30, r24
     43e:	20 83       	st	Z, r18
     440:	8b 81       	ldd	r24, Y+3	; 0x03
     442:	9c 81       	ldd	r25, Y+4	; 0x04
     444:	fc 01       	movw	r30, r24
     446:	82 89       	ldd	r24, Z+18	; 0x12
     448:	93 89       	ldd	r25, Z+19	; 0x13
     44a:	2b 81       	ldd	r18, Y+3	; 0x03
     44c:	3c 81       	ldd	r19, Y+4	; 0x04
     44e:	f9 01       	movw	r30, r18
     450:	22 89       	ldd	r18, Z+18	; 0x12
     452:	33 89       	ldd	r19, Z+19	; 0x13
     454:	f9 01       	movw	r30, r18
     456:	20 81       	ld	r18, Z
     458:	20 61       	ori	r18, 0x10	; 16
     45a:	fc 01       	movw	r30, r24
     45c:	20 83       	st	Z, r18
     45e:	8b 81       	ldd	r24, Y+3	; 0x03
     460:	9c 81       	ldd	r25, Y+4	; 0x04
     462:	fc 01       	movw	r30, r24
     464:	82 89       	ldd	r24, Z+18	; 0x12
     466:	93 89       	ldd	r25, Z+19	; 0x13
     468:	2b 81       	ldd	r18, Y+3	; 0x03
     46a:	3c 81       	ldd	r19, Y+4	; 0x04
     46c:	f9 01       	movw	r30, r18
     46e:	22 89       	ldd	r18, Z+18	; 0x12
     470:	33 89       	ldd	r19, Z+19	; 0x13
     472:	f9 01       	movw	r30, r18
     474:	20 81       	ld	r18, Z
     476:	28 60       	ori	r18, 0x08	; 8
     478:	fc 01       	movw	r30, r24
     47a:	20 83       	st	Z, r18
     47c:	8b 81       	ldd	r24, Y+3	; 0x03
     47e:	9c 81       	ldd	r25, Y+4	; 0x04
     480:	fc 01       	movw	r30, r24
     482:	82 89       	ldd	r24, Z+18	; 0x12
     484:	93 89       	ldd	r25, Z+19	; 0x13
     486:	2b 81       	ldd	r18, Y+3	; 0x03
     488:	3c 81       	ldd	r19, Y+4	; 0x04
     48a:	f9 01       	movw	r30, r18
     48c:	22 89       	ldd	r18, Z+18	; 0x12
     48e:	33 89       	ldd	r19, Z+19	; 0x13
     490:	f9 01       	movw	r30, r18
     492:	20 81       	ld	r18, Z
     494:	20 68       	ori	r18, 0x80	; 128
     496:	fc 01       	movw	r30, r24
     498:	20 83       	st	Z, r18
     49a:	8b 81       	ldd	r24, Y+3	; 0x03
     49c:	9c 81       	ldd	r25, Y+4	; 0x04
     49e:	fc 01       	movw	r30, r24
     4a0:	82 89       	ldd	r24, Z+18	; 0x12
     4a2:	93 89       	ldd	r25, Z+19	; 0x13
     4a4:	2b 81       	ldd	r18, Y+3	; 0x03
     4a6:	3c 81       	ldd	r19, Y+4	; 0x04
     4a8:	f9 01       	movw	r30, r18
     4aa:	22 89       	ldd	r18, Z+18	; 0x12
     4ac:	33 89       	ldd	r19, Z+19	; 0x13
     4ae:	f9 01       	movw	r30, r18
     4b0:	20 81       	ld	r18, Z
     4b2:	2f 7d       	andi	r18, 0xDF	; 223
     4b4:	fc 01       	movw	r30, r24
     4b6:	20 83       	st	Z, r18
     4b8:	61 96       	adiw	r28, 0x11	; 17
     4ba:	0f b6       	in	r0, 0x3f	; 63
     4bc:	f8 94       	cli
     4be:	de bf       	out	0x3e, r29	; 62
     4c0:	0f be       	out	0x3f, r0	; 63
     4c2:	cd bf       	out	0x3d, r28	; 61
     4c4:	df 91       	pop	r29
     4c6:	cf 91       	pop	r28
     4c8:	08 95       	ret

000004ca <_ZN14HardwareSerial9availableEv>:
     4ca:	cf 93       	push	r28
     4cc:	df 93       	push	r29
     4ce:	00 d0       	rcall	.+0      	; 0x4d0 <_ZN14HardwareSerial9availableEv+0x6>
     4d0:	cd b7       	in	r28, 0x3d	; 61
     4d2:	de b7       	in	r29, 0x3e	; 62
     4d4:	9a 83       	std	Y+2, r25	; 0x02
     4d6:	89 83       	std	Y+1, r24	; 0x01
     4d8:	89 81       	ldd	r24, Y+1	; 0x01
     4da:	9a 81       	ldd	r25, Y+2	; 0x02
     4dc:	fc 01       	movw	r30, r24
     4de:	81 8d       	ldd	r24, Z+25	; 0x19
     4e0:	88 2f       	mov	r24, r24
     4e2:	90 e0       	ldi	r25, 0x00	; 0
     4e4:	9c 01       	movw	r18, r24
     4e6:	20 5c       	subi	r18, 0xC0	; 192
     4e8:	3f 4f       	sbci	r19, 0xFF	; 255
     4ea:	89 81       	ldd	r24, Y+1	; 0x01
     4ec:	9a 81       	ldd	r25, Y+2	; 0x02
     4ee:	fc 01       	movw	r30, r24
     4f0:	82 8d       	ldd	r24, Z+26	; 0x1a
     4f2:	88 2f       	mov	r24, r24
     4f4:	90 e0       	ldi	r25, 0x00	; 0
     4f6:	a9 01       	movw	r20, r18
     4f8:	48 1b       	sub	r20, r24
     4fa:	59 0b       	sbc	r21, r25
     4fc:	ca 01       	movw	r24, r20
     4fe:	8f 73       	andi	r24, 0x3F	; 63
     500:	99 27       	eor	r25, r25
     502:	0f 90       	pop	r0
     504:	0f 90       	pop	r0
     506:	df 91       	pop	r29
     508:	cf 91       	pop	r28
     50a:	08 95       	ret

0000050c <_ZN14HardwareSerial4peekEv>:
     50c:	cf 93       	push	r28
     50e:	df 93       	push	r29
     510:	00 d0       	rcall	.+0      	; 0x512 <_ZN14HardwareSerial4peekEv+0x6>
     512:	cd b7       	in	r28, 0x3d	; 61
     514:	de b7       	in	r29, 0x3e	; 62
     516:	9a 83       	std	Y+2, r25	; 0x02
     518:	89 83       	std	Y+1, r24	; 0x01
     51a:	89 81       	ldd	r24, Y+1	; 0x01
     51c:	9a 81       	ldd	r25, Y+2	; 0x02
     51e:	fc 01       	movw	r30, r24
     520:	21 8d       	ldd	r18, Z+25	; 0x19
     522:	89 81       	ldd	r24, Y+1	; 0x01
     524:	9a 81       	ldd	r25, Y+2	; 0x02
     526:	fc 01       	movw	r30, r24
     528:	92 8d       	ldd	r25, Z+26	; 0x1a
     52a:	81 e0       	ldi	r24, 0x01	; 1
     52c:	29 17       	cp	r18, r25
     52e:	09 f0       	breq	.+2      	; 0x532 <_ZN14HardwareSerial4peekEv+0x26>
     530:	80 e0       	ldi	r24, 0x00	; 0
     532:	88 23       	and	r24, r24
     534:	19 f0       	breq	.+6      	; 0x53c <_ZN14HardwareSerial4peekEv+0x30>
     536:	8f ef       	ldi	r24, 0xFF	; 255
     538:	9f ef       	ldi	r25, 0xFF	; 255
     53a:	0f c0       	rjmp	.+30     	; 0x55a <_ZN14HardwareSerial4peekEv+0x4e>
     53c:	89 81       	ldd	r24, Y+1	; 0x01
     53e:	9a 81       	ldd	r25, Y+2	; 0x02
     540:	fc 01       	movw	r30, r24
     542:	82 8d       	ldd	r24, Z+26	; 0x1a
     544:	88 2f       	mov	r24, r24
     546:	90 e0       	ldi	r25, 0x00	; 0
     548:	29 81       	ldd	r18, Y+1	; 0x01
     54a:	3a 81       	ldd	r19, Y+2	; 0x02
     54c:	82 0f       	add	r24, r18
     54e:	93 1f       	adc	r25, r19
     550:	4d 96       	adiw	r24, 0x1d	; 29
     552:	fc 01       	movw	r30, r24
     554:	80 81       	ld	r24, Z
     556:	88 2f       	mov	r24, r24
     558:	90 e0       	ldi	r25, 0x00	; 0
     55a:	0f 90       	pop	r0
     55c:	0f 90       	pop	r0
     55e:	df 91       	pop	r29
     560:	cf 91       	pop	r28
     562:	08 95       	ret

00000564 <_ZN14HardwareSerial4readEv>:
     564:	cf 93       	push	r28
     566:	df 93       	push	r29
     568:	00 d0       	rcall	.+0      	; 0x56a <_ZN14HardwareSerial4readEv+0x6>
     56a:	1f 92       	push	r1
     56c:	cd b7       	in	r28, 0x3d	; 61
     56e:	de b7       	in	r29, 0x3e	; 62
     570:	9b 83       	std	Y+3, r25	; 0x03
     572:	8a 83       	std	Y+2, r24	; 0x02
     574:	8a 81       	ldd	r24, Y+2	; 0x02
     576:	9b 81       	ldd	r25, Y+3	; 0x03
     578:	fc 01       	movw	r30, r24
     57a:	21 8d       	ldd	r18, Z+25	; 0x19
     57c:	8a 81       	ldd	r24, Y+2	; 0x02
     57e:	9b 81       	ldd	r25, Y+3	; 0x03
     580:	fc 01       	movw	r30, r24
     582:	92 8d       	ldd	r25, Z+26	; 0x1a
     584:	81 e0       	ldi	r24, 0x01	; 1
     586:	29 17       	cp	r18, r25
     588:	09 f0       	breq	.+2      	; 0x58c <_ZN14HardwareSerial4readEv+0x28>
     58a:	80 e0       	ldi	r24, 0x00	; 0
     58c:	88 23       	and	r24, r24
     58e:	19 f0       	breq	.+6      	; 0x596 <_ZN14HardwareSerial4readEv+0x32>
     590:	8f ef       	ldi	r24, 0xFF	; 255
     592:	9f ef       	ldi	r25, 0xFF	; 255
     594:	1c c0       	rjmp	.+56     	; 0x5ce <_ZN14HardwareSerial4readEv+0x6a>
     596:	8a 81       	ldd	r24, Y+2	; 0x02
     598:	9b 81       	ldd	r25, Y+3	; 0x03
     59a:	fc 01       	movw	r30, r24
     59c:	82 8d       	ldd	r24, Z+26	; 0x1a
     59e:	88 2f       	mov	r24, r24
     5a0:	90 e0       	ldi	r25, 0x00	; 0
     5a2:	2a 81       	ldd	r18, Y+2	; 0x02
     5a4:	3b 81       	ldd	r19, Y+3	; 0x03
     5a6:	82 0f       	add	r24, r18
     5a8:	93 1f       	adc	r25, r19
     5aa:	4d 96       	adiw	r24, 0x1d	; 29
     5ac:	fc 01       	movw	r30, r24
     5ae:	80 81       	ld	r24, Z
     5b0:	89 83       	std	Y+1, r24	; 0x01
     5b2:	8a 81       	ldd	r24, Y+2	; 0x02
     5b4:	9b 81       	ldd	r25, Y+3	; 0x03
     5b6:	fc 01       	movw	r30, r24
     5b8:	82 8d       	ldd	r24, Z+26	; 0x1a
     5ba:	8f 5f       	subi	r24, 0xFF	; 255
     5bc:	28 2f       	mov	r18, r24
     5be:	2f 73       	andi	r18, 0x3F	; 63
     5c0:	8a 81       	ldd	r24, Y+2	; 0x02
     5c2:	9b 81       	ldd	r25, Y+3	; 0x03
     5c4:	fc 01       	movw	r30, r24
     5c6:	22 8f       	std	Z+26, r18	; 0x1a
     5c8:	89 81       	ldd	r24, Y+1	; 0x01
     5ca:	88 2f       	mov	r24, r24
     5cc:	90 e0       	ldi	r25, 0x00	; 0
     5ce:	0f 90       	pop	r0
     5d0:	0f 90       	pop	r0
     5d2:	0f 90       	pop	r0
     5d4:	df 91       	pop	r29
     5d6:	cf 91       	pop	r28
     5d8:	08 95       	ret

000005da <_ZN14HardwareSerial5flushEv>:
     5da:	cf 93       	push	r28
     5dc:	df 93       	push	r29
     5de:	00 d0       	rcall	.+0      	; 0x5e0 <_ZN14HardwareSerial5flushEv+0x6>
     5e0:	cd b7       	in	r28, 0x3d	; 61
     5e2:	de b7       	in	r29, 0x3e	; 62
     5e4:	9a 83       	std	Y+2, r25	; 0x02
     5e6:	89 83       	std	Y+1, r24	; 0x01
     5e8:	89 81       	ldd	r24, Y+1	; 0x01
     5ea:	9a 81       	ldd	r25, Y+2	; 0x02
     5ec:	fc 01       	movw	r30, r24
     5ee:	90 8d       	ldd	r25, Z+24	; 0x18
     5f0:	81 e0       	ldi	r24, 0x01	; 1
     5f2:	89 27       	eor	r24, r25
     5f4:	88 23       	and	r24, r24
     5f6:	09 f0       	breq	.+2      	; 0x5fa <_ZN14HardwareSerial5flushEv+0x20>
     5f8:	4e c0       	rjmp	.+156    	; 0x696 <_ZN14HardwareSerial5flushEv+0xbc>
     5fa:	2d c0       	rjmp	.+90     	; 0x656 <_ZN14HardwareSerial5flushEv+0x7c>
     5fc:	8f e5       	ldi	r24, 0x5F	; 95
     5fe:	90 e0       	ldi	r25, 0x00	; 0
     600:	fc 01       	movw	r30, r24
     602:	80 81       	ld	r24, Z
     604:	88 23       	and	r24, r24
     606:	7c f0       	brlt	.+30     	; 0x626 <_ZN14HardwareSerial5flushEv+0x4c>
     608:	89 81       	ldd	r24, Y+1	; 0x01
     60a:	9a 81       	ldd	r25, Y+2	; 0x02
     60c:	fc 01       	movw	r30, r24
     60e:	82 89       	ldd	r24, Z+18	; 0x12
     610:	93 89       	ldd	r25, Z+19	; 0x13
     612:	fc 01       	movw	r30, r24
     614:	80 81       	ld	r24, Z
     616:	88 2f       	mov	r24, r24
     618:	90 e0       	ldi	r25, 0x00	; 0
     61a:	80 72       	andi	r24, 0x20	; 32
     61c:	99 27       	eor	r25, r25
     61e:	89 2b       	or	r24, r25
     620:	11 f0       	breq	.+4      	; 0x626 <_ZN14HardwareSerial5flushEv+0x4c>
     622:	81 e0       	ldi	r24, 0x01	; 1
     624:	01 c0       	rjmp	.+2      	; 0x628 <_ZN14HardwareSerial5flushEv+0x4e>
     626:	80 e0       	ldi	r24, 0x00	; 0
     628:	88 23       	and	r24, r24
     62a:	a9 f0       	breq	.+42     	; 0x656 <_ZN14HardwareSerial5flushEv+0x7c>
     62c:	89 81       	ldd	r24, Y+1	; 0x01
     62e:	9a 81       	ldd	r25, Y+2	; 0x02
     630:	fc 01       	movw	r30, r24
     632:	80 89       	ldd	r24, Z+16	; 0x10
     634:	91 89       	ldd	r25, Z+17	; 0x11
     636:	fc 01       	movw	r30, r24
     638:	80 81       	ld	r24, Z
     63a:	88 2f       	mov	r24, r24
     63c:	90 e0       	ldi	r25, 0x00	; 0
     63e:	80 72       	andi	r24, 0x20	; 32
     640:	99 27       	eor	r25, r25
     642:	21 e0       	ldi	r18, 0x01	; 1
     644:	89 2b       	or	r24, r25
     646:	09 f4       	brne	.+2      	; 0x64a <_ZN14HardwareSerial5flushEv+0x70>
     648:	20 e0       	ldi	r18, 0x00	; 0
     64a:	22 23       	and	r18, r18
     64c:	21 f0       	breq	.+8      	; 0x656 <_ZN14HardwareSerial5flushEv+0x7c>
     64e:	89 81       	ldd	r24, Y+1	; 0x01
     650:	9a 81       	ldd	r25, Y+2	; 0x02
     652:	0e 94 40 01 	call	0x280	; 0x280 <_ZN14HardwareSerial17_tx_udr_empty_irqEv>
     656:	89 81       	ldd	r24, Y+1	; 0x01
     658:	9a 81       	ldd	r25, Y+2	; 0x02
     65a:	fc 01       	movw	r30, r24
     65c:	82 89       	ldd	r24, Z+18	; 0x12
     65e:	93 89       	ldd	r25, Z+19	; 0x13
     660:	fc 01       	movw	r30, r24
     662:	80 81       	ld	r24, Z
     664:	88 2f       	mov	r24, r24
     666:	90 e0       	ldi	r25, 0x00	; 0
     668:	80 72       	andi	r24, 0x20	; 32
     66a:	99 27       	eor	r25, r25
     66c:	89 2b       	or	r24, r25
     66e:	69 f4       	brne	.+26     	; 0x68a <_ZN14HardwareSerial5flushEv+0xb0>
     670:	89 81       	ldd	r24, Y+1	; 0x01
     672:	9a 81       	ldd	r25, Y+2	; 0x02
     674:	fc 01       	movw	r30, r24
     676:	80 89       	ldd	r24, Z+16	; 0x10
     678:	91 89       	ldd	r25, Z+17	; 0x11
     67a:	fc 01       	movw	r30, r24
     67c:	80 81       	ld	r24, Z
     67e:	88 2f       	mov	r24, r24
     680:	90 e0       	ldi	r25, 0x00	; 0
     682:	80 74       	andi	r24, 0x40	; 64
     684:	99 27       	eor	r25, r25
     686:	89 2b       	or	r24, r25
     688:	11 f4       	brne	.+4      	; 0x68e <_ZN14HardwareSerial5flushEv+0xb4>
     68a:	81 e0       	ldi	r24, 0x01	; 1
     68c:	01 c0       	rjmp	.+2      	; 0x690 <_ZN14HardwareSerial5flushEv+0xb6>
     68e:	80 e0       	ldi	r24, 0x00	; 0
     690:	88 23       	and	r24, r24
     692:	09 f0       	breq	.+2      	; 0x696 <_ZN14HardwareSerial5flushEv+0xbc>
     694:	b3 cf       	rjmp	.-154    	; 0x5fc <_ZN14HardwareSerial5flushEv+0x22>
     696:	0f 90       	pop	r0
     698:	0f 90       	pop	r0
     69a:	df 91       	pop	r29
     69c:	cf 91       	pop	r28
     69e:	08 95       	ret

000006a0 <_ZN14HardwareSerial5writeEh>:
     6a0:	cf 93       	push	r28
     6a2:	df 93       	push	r29
     6a4:	00 d0       	rcall	.+0      	; 0x6a6 <_ZN14HardwareSerial5writeEh+0x6>
     6a6:	00 d0       	rcall	.+0      	; 0x6a8 <_ZN14HardwareSerial5writeEh+0x8>
     6a8:	cd b7       	in	r28, 0x3d	; 61
     6aa:	de b7       	in	r29, 0x3e	; 62
     6ac:	9b 83       	std	Y+3, r25	; 0x03
     6ae:	8a 83       	std	Y+2, r24	; 0x02
     6b0:	6c 83       	std	Y+4, r22	; 0x04
     6b2:	8a 81       	ldd	r24, Y+2	; 0x02
     6b4:	9b 81       	ldd	r25, Y+3	; 0x03
     6b6:	21 e0       	ldi	r18, 0x01	; 1
     6b8:	fc 01       	movw	r30, r24
     6ba:	20 8f       	std	Z+24, r18	; 0x18
     6bc:	8a 81       	ldd	r24, Y+2	; 0x02
     6be:	9b 81       	ldd	r25, Y+3	; 0x03
     6c0:	fc 01       	movw	r30, r24
     6c2:	23 8d       	ldd	r18, Z+27	; 0x1b
     6c4:	8a 81       	ldd	r24, Y+2	; 0x02
     6c6:	9b 81       	ldd	r25, Y+3	; 0x03
     6c8:	fc 01       	movw	r30, r24
     6ca:	84 8d       	ldd	r24, Z+28	; 0x1c
     6cc:	28 17       	cp	r18, r24
     6ce:	79 f4       	brne	.+30     	; 0x6ee <_ZN14HardwareSerial5writeEh+0x4e>
     6d0:	8a 81       	ldd	r24, Y+2	; 0x02
     6d2:	9b 81       	ldd	r25, Y+3	; 0x03
     6d4:	fc 01       	movw	r30, r24
     6d6:	80 89       	ldd	r24, Z+16	; 0x10
     6d8:	91 89       	ldd	r25, Z+17	; 0x11
     6da:	fc 01       	movw	r30, r24
     6dc:	80 81       	ld	r24, Z
     6de:	88 2f       	mov	r24, r24
     6e0:	90 e0       	ldi	r25, 0x00	; 0
     6e2:	80 72       	andi	r24, 0x20	; 32
     6e4:	99 27       	eor	r25, r25
     6e6:	89 2b       	or	r24, r25
     6e8:	11 f0       	breq	.+4      	; 0x6ee <_ZN14HardwareSerial5writeEh+0x4e>
     6ea:	81 e0       	ldi	r24, 0x01	; 1
     6ec:	01 c0       	rjmp	.+2      	; 0x6f0 <_ZN14HardwareSerial5writeEh+0x50>
     6ee:	80 e0       	ldi	r24, 0x00	; 0
     6f0:	88 23       	and	r24, r24
     6f2:	d1 f0       	breq	.+52     	; 0x728 <_ZN14HardwareSerial5writeEh+0x88>
     6f4:	8a 81       	ldd	r24, Y+2	; 0x02
     6f6:	9b 81       	ldd	r25, Y+3	; 0x03
     6f8:	fc 01       	movw	r30, r24
     6fa:	86 89       	ldd	r24, Z+22	; 0x16
     6fc:	97 89       	ldd	r25, Z+23	; 0x17
     6fe:	2c 81       	ldd	r18, Y+4	; 0x04
     700:	fc 01       	movw	r30, r24
     702:	20 83       	st	Z, r18
     704:	8a 81       	ldd	r24, Y+2	; 0x02
     706:	9b 81       	ldd	r25, Y+3	; 0x03
     708:	fc 01       	movw	r30, r24
     70a:	80 89       	ldd	r24, Z+16	; 0x10
     70c:	91 89       	ldd	r25, Z+17	; 0x11
     70e:	2a 81       	ldd	r18, Y+2	; 0x02
     710:	3b 81       	ldd	r19, Y+3	; 0x03
     712:	f9 01       	movw	r30, r18
     714:	20 89       	ldd	r18, Z+16	; 0x10
     716:	31 89       	ldd	r19, Z+17	; 0x11
     718:	f9 01       	movw	r30, r18
     71a:	20 81       	ld	r18, Z
     71c:	20 64       	ori	r18, 0x40	; 64
     71e:	fc 01       	movw	r30, r24
     720:	20 83       	st	Z, r18
     722:	81 e0       	ldi	r24, 0x01	; 1
     724:	90 e0       	ldi	r25, 0x00	; 0
     726:	60 c0       	rjmp	.+192    	; 0x7e8 <_ZN14HardwareSerial5writeEh+0x148>
     728:	8a 81       	ldd	r24, Y+2	; 0x02
     72a:	9b 81       	ldd	r25, Y+3	; 0x03
     72c:	fc 01       	movw	r30, r24
     72e:	83 8d       	ldd	r24, Z+27	; 0x1b
     730:	88 2f       	mov	r24, r24
     732:	90 e0       	ldi	r25, 0x00	; 0
     734:	01 96       	adiw	r24, 0x01	; 1
     736:	8f 77       	andi	r24, 0x7F	; 127
     738:	90 78       	andi	r25, 0x80	; 128
     73a:	99 23       	and	r25, r25
     73c:	24 f4       	brge	.+8      	; 0x746 <_ZN14HardwareSerial5writeEh+0xa6>
     73e:	01 97       	sbiw	r24, 0x01	; 1
     740:	80 68       	ori	r24, 0x80	; 128
     742:	9f 6f       	ori	r25, 0xFF	; 255
     744:	01 96       	adiw	r24, 0x01	; 1
     746:	89 83       	std	Y+1, r24	; 0x01
     748:	1f c0       	rjmp	.+62     	; 0x788 <_ZN14HardwareSerial5writeEh+0xe8>
     74a:	8f e5       	ldi	r24, 0x5F	; 95
     74c:	90 e0       	ldi	r25, 0x00	; 0
     74e:	fc 01       	movw	r30, r24
     750:	80 81       	ld	r24, Z
     752:	80 95       	com	r24
     754:	88 1f       	adc	r24, r24
     756:	88 27       	eor	r24, r24
     758:	88 1f       	adc	r24, r24
     75a:	88 23       	and	r24, r24
     75c:	a9 f0       	breq	.+42     	; 0x788 <_ZN14HardwareSerial5writeEh+0xe8>
     75e:	8a 81       	ldd	r24, Y+2	; 0x02
     760:	9b 81       	ldd	r25, Y+3	; 0x03
     762:	fc 01       	movw	r30, r24
     764:	80 89       	ldd	r24, Z+16	; 0x10
     766:	91 89       	ldd	r25, Z+17	; 0x11
     768:	fc 01       	movw	r30, r24
     76a:	80 81       	ld	r24, Z
     76c:	88 2f       	mov	r24, r24
     76e:	90 e0       	ldi	r25, 0x00	; 0
     770:	80 72       	andi	r24, 0x20	; 32
     772:	99 27       	eor	r25, r25
     774:	21 e0       	ldi	r18, 0x01	; 1
     776:	89 2b       	or	r24, r25
     778:	09 f4       	brne	.+2      	; 0x77c <_ZN14HardwareSerial5writeEh+0xdc>
     77a:	20 e0       	ldi	r18, 0x00	; 0
     77c:	22 23       	and	r18, r18
     77e:	21 f0       	breq	.+8      	; 0x788 <_ZN14HardwareSerial5writeEh+0xe8>
     780:	8a 81       	ldd	r24, Y+2	; 0x02
     782:	9b 81       	ldd	r25, Y+3	; 0x03
     784:	0e 94 40 01 	call	0x280	; 0x280 <_ZN14HardwareSerial17_tx_udr_empty_irqEv>
     788:	8a 81       	ldd	r24, Y+2	; 0x02
     78a:	9b 81       	ldd	r25, Y+3	; 0x03
     78c:	fc 01       	movw	r30, r24
     78e:	24 8d       	ldd	r18, Z+28	; 0x1c
     790:	81 e0       	ldi	r24, 0x01	; 1
     792:	99 81       	ldd	r25, Y+1	; 0x01
     794:	29 17       	cp	r18, r25
     796:	09 f0       	breq	.+2      	; 0x79a <_ZN14HardwareSerial5writeEh+0xfa>
     798:	80 e0       	ldi	r24, 0x00	; 0
     79a:	88 23       	and	r24, r24
     79c:	b1 f6       	brne	.-84     	; 0x74a <_ZN14HardwareSerial5writeEh+0xaa>
     79e:	8a 81       	ldd	r24, Y+2	; 0x02
     7a0:	9b 81       	ldd	r25, Y+3	; 0x03
     7a2:	fc 01       	movw	r30, r24
     7a4:	83 8d       	ldd	r24, Z+27	; 0x1b
     7a6:	88 2f       	mov	r24, r24
     7a8:	90 e0       	ldi	r25, 0x00	; 0
     7aa:	2a 81       	ldd	r18, Y+2	; 0x02
     7ac:	3b 81       	ldd	r19, Y+3	; 0x03
     7ae:	82 0f       	add	r24, r18
     7b0:	93 1f       	adc	r25, r19
     7b2:	83 5a       	subi	r24, 0xA3	; 163
     7b4:	9f 4f       	sbci	r25, 0xFF	; 255
     7b6:	2c 81       	ldd	r18, Y+4	; 0x04
     7b8:	fc 01       	movw	r30, r24
     7ba:	20 83       	st	Z, r18
     7bc:	8a 81       	ldd	r24, Y+2	; 0x02
     7be:	9b 81       	ldd	r25, Y+3	; 0x03
     7c0:	29 81       	ldd	r18, Y+1	; 0x01
     7c2:	fc 01       	movw	r30, r24
     7c4:	23 8f       	std	Z+27, r18	; 0x1b
     7c6:	8a 81       	ldd	r24, Y+2	; 0x02
     7c8:	9b 81       	ldd	r25, Y+3	; 0x03
     7ca:	fc 01       	movw	r30, r24
     7cc:	82 89       	ldd	r24, Z+18	; 0x12
     7ce:	93 89       	ldd	r25, Z+19	; 0x13
     7d0:	2a 81       	ldd	r18, Y+2	; 0x02
     7d2:	3b 81       	ldd	r19, Y+3	; 0x03
     7d4:	f9 01       	movw	r30, r18
     7d6:	22 89       	ldd	r18, Z+18	; 0x12
     7d8:	33 89       	ldd	r19, Z+19	; 0x13
     7da:	f9 01       	movw	r30, r18
     7dc:	20 81       	ld	r18, Z
     7de:	20 62       	ori	r18, 0x20	; 32
     7e0:	fc 01       	movw	r30, r24
     7e2:	20 83       	st	Z, r18
     7e4:	81 e0       	ldi	r24, 0x01	; 1
     7e6:	90 e0       	ldi	r25, 0x00	; 0
     7e8:	0f 90       	pop	r0
     7ea:	0f 90       	pop	r0
     7ec:	0f 90       	pop	r0
     7ee:	0f 90       	pop	r0
     7f0:	df 91       	pop	r29
     7f2:	cf 91       	pop	r28
     7f4:	08 95       	ret

000007f6 <_ZN5PrintC1Ev>:
     7f6:	cf 93       	push	r28
     7f8:	df 93       	push	r29
     7fa:	00 d0       	rcall	.+0      	; 0x7fc <_ZN5PrintC1Ev+0x6>
     7fc:	cd b7       	in	r28, 0x3d	; 61
     7fe:	de b7       	in	r29, 0x3e	; 62
     800:	9a 83       	std	Y+2, r25	; 0x02
     802:	89 83       	std	Y+1, r24	; 0x01
     804:	89 81       	ldd	r24, Y+1	; 0x01
     806:	9a 81       	ldd	r25, Y+2	; 0x02
     808:	21 e9       	ldi	r18, 0x91	; 145
     80a:	31 e0       	ldi	r19, 0x01	; 1
     80c:	fc 01       	movw	r30, r24
     80e:	31 83       	std	Z+1, r19	; 0x01
     810:	20 83       	st	Z, r18
     812:	89 81       	ldd	r24, Y+1	; 0x01
     814:	9a 81       	ldd	r25, Y+2	; 0x02
     816:	fc 01       	movw	r30, r24
     818:	13 82       	std	Z+3, r1	; 0x03
     81a:	12 82       	std	Z+2, r1	; 0x02
     81c:	0f 90       	pop	r0
     81e:	0f 90       	pop	r0
     820:	df 91       	pop	r29
     822:	cf 91       	pop	r28
     824:	08 95       	ret

00000826 <_ZN6StreamC1Ev>:
     826:	cf 93       	push	r28
     828:	df 93       	push	r29
     82a:	00 d0       	rcall	.+0      	; 0x82c <_ZN6StreamC1Ev+0x6>
     82c:	cd b7       	in	r28, 0x3d	; 61
     82e:	de b7       	in	r29, 0x3e	; 62
     830:	9a 83       	std	Y+2, r25	; 0x02
     832:	89 83       	std	Y+1, r24	; 0x01
     834:	89 81       	ldd	r24, Y+1	; 0x01
     836:	9a 81       	ldd	r25, Y+2	; 0x02
     838:	0e 94 fb 03 	call	0x7f6	; 0x7f6 <_ZN5PrintC1Ev>
     83c:	89 81       	ldd	r24, Y+1	; 0x01
     83e:	9a 81       	ldd	r25, Y+2	; 0x02
     840:	21 e8       	ldi	r18, 0x81	; 129
     842:	31 e0       	ldi	r19, 0x01	; 1
     844:	fc 01       	movw	r30, r24
     846:	31 83       	std	Z+1, r19	; 0x01
     848:	20 83       	st	Z, r18
     84a:	29 81       	ldd	r18, Y+1	; 0x01
     84c:	3a 81       	ldd	r19, Y+2	; 0x02
     84e:	88 ee       	ldi	r24, 0xE8	; 232
     850:	93 e0       	ldi	r25, 0x03	; 3
     852:	a0 e0       	ldi	r26, 0x00	; 0
     854:	b0 e0       	ldi	r27, 0x00	; 0
     856:	f9 01       	movw	r30, r18
     858:	84 83       	std	Z+4, r24	; 0x04
     85a:	95 83       	std	Z+5, r25	; 0x05
     85c:	a6 83       	std	Z+6, r26	; 0x06
     85e:	b7 83       	std	Z+7, r27	; 0x07
     860:	0f 90       	pop	r0
     862:	0f 90       	pop	r0
     864:	df 91       	pop	r29
     866:	cf 91       	pop	r28
     868:	08 95       	ret

0000086a <_ZN14HardwareSerialC1EPVhS1_S1_S1_S1_S1_>:
     86a:	cf 92       	push	r12
     86c:	df 92       	push	r13
     86e:	ef 92       	push	r14
     870:	ff 92       	push	r15
     872:	0f 93       	push	r16
     874:	1f 93       	push	r17
     876:	cf 93       	push	r28
     878:	df 93       	push	r29
     87a:	cd b7       	in	r28, 0x3d	; 61
     87c:	de b7       	in	r29, 0x3e	; 62
     87e:	2e 97       	sbiw	r28, 0x0e	; 14
     880:	0f b6       	in	r0, 0x3f	; 63
     882:	f8 94       	cli
     884:	de bf       	out	0x3e, r29	; 62
     886:	0f be       	out	0x3f, r0	; 63
     888:	cd bf       	out	0x3d, r28	; 61
     88a:	9a 83       	std	Y+2, r25	; 0x02
     88c:	89 83       	std	Y+1, r24	; 0x01
     88e:	7c 83       	std	Y+4, r23	; 0x04
     890:	6b 83       	std	Y+3, r22	; 0x03
     892:	5e 83       	std	Y+6, r21	; 0x06
     894:	4d 83       	std	Y+5, r20	; 0x05
     896:	38 87       	std	Y+8, r19	; 0x08
     898:	2f 83       	std	Y+7, r18	; 0x07
     89a:	1a 87       	std	Y+10, r17	; 0x0a
     89c:	09 87       	std	Y+9, r16	; 0x09
     89e:	fc 86       	std	Y+12, r15	; 0x0c
     8a0:	eb 86       	std	Y+11, r14	; 0x0b
     8a2:	de 86       	std	Y+14, r13	; 0x0e
     8a4:	cd 86       	std	Y+13, r12	; 0x0d
     8a6:	89 81       	ldd	r24, Y+1	; 0x01
     8a8:	9a 81       	ldd	r25, Y+2	; 0x02
     8aa:	0e 94 13 04 	call	0x826	; 0x826 <_ZN6StreamC1Ev>
     8ae:	89 81       	ldd	r24, Y+1	; 0x01
     8b0:	9a 81       	ldd	r25, Y+2	; 0x02
     8b2:	21 e7       	ldi	r18, 0x71	; 113
     8b4:	31 e0       	ldi	r19, 0x01	; 1
     8b6:	fc 01       	movw	r30, r24
     8b8:	31 83       	std	Z+1, r19	; 0x01
     8ba:	20 83       	st	Z, r18
     8bc:	89 81       	ldd	r24, Y+1	; 0x01
     8be:	9a 81       	ldd	r25, Y+2	; 0x02
     8c0:	2b 81       	ldd	r18, Y+3	; 0x03
     8c2:	3c 81       	ldd	r19, Y+4	; 0x04
     8c4:	fc 01       	movw	r30, r24
     8c6:	35 87       	std	Z+13, r19	; 0x0d
     8c8:	24 87       	std	Z+12, r18	; 0x0c
     8ca:	89 81       	ldd	r24, Y+1	; 0x01
     8cc:	9a 81       	ldd	r25, Y+2	; 0x02
     8ce:	2d 81       	ldd	r18, Y+5	; 0x05
     8d0:	3e 81       	ldd	r19, Y+6	; 0x06
     8d2:	fc 01       	movw	r30, r24
     8d4:	37 87       	std	Z+15, r19	; 0x0f
     8d6:	26 87       	std	Z+14, r18	; 0x0e
     8d8:	89 81       	ldd	r24, Y+1	; 0x01
     8da:	9a 81       	ldd	r25, Y+2	; 0x02
     8dc:	2f 81       	ldd	r18, Y+7	; 0x07
     8de:	38 85       	ldd	r19, Y+8	; 0x08
     8e0:	fc 01       	movw	r30, r24
     8e2:	31 8b       	std	Z+17, r19	; 0x11
     8e4:	20 8b       	std	Z+16, r18	; 0x10
     8e6:	89 81       	ldd	r24, Y+1	; 0x01
     8e8:	9a 81       	ldd	r25, Y+2	; 0x02
     8ea:	29 85       	ldd	r18, Y+9	; 0x09
     8ec:	3a 85       	ldd	r19, Y+10	; 0x0a
     8ee:	fc 01       	movw	r30, r24
     8f0:	33 8b       	std	Z+19, r19	; 0x13
     8f2:	22 8b       	std	Z+18, r18	; 0x12
     8f4:	89 81       	ldd	r24, Y+1	; 0x01
     8f6:	9a 81       	ldd	r25, Y+2	; 0x02
     8f8:	2b 85       	ldd	r18, Y+11	; 0x0b
     8fa:	3c 85       	ldd	r19, Y+12	; 0x0c
     8fc:	fc 01       	movw	r30, r24
     8fe:	35 8b       	std	Z+21, r19	; 0x15
     900:	24 8b       	std	Z+20, r18	; 0x14
     902:	89 81       	ldd	r24, Y+1	; 0x01
     904:	9a 81       	ldd	r25, Y+2	; 0x02
     906:	2d 85       	ldd	r18, Y+13	; 0x0d
     908:	3e 85       	ldd	r19, Y+14	; 0x0e
     90a:	fc 01       	movw	r30, r24
     90c:	37 8b       	std	Z+23, r19	; 0x17
     90e:	26 8b       	std	Z+22, r18	; 0x16
     910:	89 81       	ldd	r24, Y+1	; 0x01
     912:	9a 81       	ldd	r25, Y+2	; 0x02
     914:	fc 01       	movw	r30, r24
     916:	11 8e       	std	Z+25, r1	; 0x19
     918:	89 81       	ldd	r24, Y+1	; 0x01
     91a:	9a 81       	ldd	r25, Y+2	; 0x02
     91c:	fc 01       	movw	r30, r24
     91e:	12 8e       	std	Z+26, r1	; 0x1a
     920:	89 81       	ldd	r24, Y+1	; 0x01
     922:	9a 81       	ldd	r25, Y+2	; 0x02
     924:	fc 01       	movw	r30, r24
     926:	13 8e       	std	Z+27, r1	; 0x1b
     928:	89 81       	ldd	r24, Y+1	; 0x01
     92a:	9a 81       	ldd	r25, Y+2	; 0x02
     92c:	fc 01       	movw	r30, r24
     92e:	14 8e       	std	Z+28, r1	; 0x1c
     930:	2e 96       	adiw	r28, 0x0e	; 14
     932:	0f b6       	in	r0, 0x3f	; 63
     934:	f8 94       	cli
     936:	de bf       	out	0x3e, r29	; 62
     938:	0f be       	out	0x3f, r0	; 63
     93a:	cd bf       	out	0x3d, r28	; 61
     93c:	df 91       	pop	r29
     93e:	cf 91       	pop	r28
     940:	1f 91       	pop	r17
     942:	0f 91       	pop	r16
     944:	ff 90       	pop	r15
     946:	ef 90       	pop	r14
     948:	df 90       	pop	r13
     94a:	cf 90       	pop	r12
     94c:	08 95       	ret

0000094e <_ZN14HardwareSerial16_rx_complete_irqEv>:
     94e:	cf 93       	push	r28
     950:	df 93       	push	r29
     952:	00 d0       	rcall	.+0      	; 0x954 <_ZN14HardwareSerial16_rx_complete_irqEv+0x6>
     954:	00 d0       	rcall	.+0      	; 0x956 <_ZN14HardwareSerial16_rx_complete_irqEv+0x8>
     956:	cd b7       	in	r28, 0x3d	; 61
     958:	de b7       	in	r29, 0x3e	; 62
     95a:	9c 83       	std	Y+4, r25	; 0x04
     95c:	8b 83       	std	Y+3, r24	; 0x03
     95e:	8b 81       	ldd	r24, Y+3	; 0x03
     960:	9c 81       	ldd	r25, Y+4	; 0x04
     962:	fc 01       	movw	r30, r24
     964:	80 89       	ldd	r24, Z+16	; 0x10
     966:	91 89       	ldd	r25, Z+17	; 0x11
     968:	fc 01       	movw	r30, r24
     96a:	80 81       	ld	r24, Z
     96c:	88 2f       	mov	r24, r24
     96e:	90 e0       	ldi	r25, 0x00	; 0
     970:	84 70       	andi	r24, 0x04	; 4
     972:	99 27       	eor	r25, r25
     974:	21 e0       	ldi	r18, 0x01	; 1
     976:	89 2b       	or	r24, r25
     978:	09 f0       	breq	.+2      	; 0x97c <_ZN14HardwareSerial16_rx_complete_irqEv+0x2e>
     97a:	20 e0       	ldi	r18, 0x00	; 0
     97c:	22 23       	and	r18, r18
     97e:	71 f1       	breq	.+92     	; 0x9dc <_ZN14HardwareSerial16_rx_complete_irqEv+0x8e>
     980:	8b 81       	ldd	r24, Y+3	; 0x03
     982:	9c 81       	ldd	r25, Y+4	; 0x04
     984:	fc 01       	movw	r30, r24
     986:	86 89       	ldd	r24, Z+22	; 0x16
     988:	97 89       	ldd	r25, Z+23	; 0x17
     98a:	fc 01       	movw	r30, r24
     98c:	80 81       	ld	r24, Z
     98e:	89 83       	std	Y+1, r24	; 0x01
     990:	8b 81       	ldd	r24, Y+3	; 0x03
     992:	9c 81       	ldd	r25, Y+4	; 0x04
     994:	fc 01       	movw	r30, r24
     996:	81 8d       	ldd	r24, Z+25	; 0x19
     998:	8f 5f       	subi	r24, 0xFF	; 255
     99a:	8f 73       	andi	r24, 0x3F	; 63
     99c:	8a 83       	std	Y+2, r24	; 0x02
     99e:	8b 81       	ldd	r24, Y+3	; 0x03
     9a0:	9c 81       	ldd	r25, Y+4	; 0x04
     9a2:	fc 01       	movw	r30, r24
     9a4:	22 8d       	ldd	r18, Z+26	; 0x1a
     9a6:	81 e0       	ldi	r24, 0x01	; 1
     9a8:	9a 81       	ldd	r25, Y+2	; 0x02
     9aa:	29 17       	cp	r18, r25
     9ac:	09 f4       	brne	.+2      	; 0x9b0 <_ZN14HardwareSerial16_rx_complete_irqEv+0x62>
     9ae:	80 e0       	ldi	r24, 0x00	; 0
     9b0:	88 23       	and	r24, r24
     9b2:	99 f0       	breq	.+38     	; 0x9da <_ZN14HardwareSerial16_rx_complete_irqEv+0x8c>
     9b4:	8b 81       	ldd	r24, Y+3	; 0x03
     9b6:	9c 81       	ldd	r25, Y+4	; 0x04
     9b8:	fc 01       	movw	r30, r24
     9ba:	81 8d       	ldd	r24, Z+25	; 0x19
     9bc:	88 2f       	mov	r24, r24
     9be:	90 e0       	ldi	r25, 0x00	; 0
     9c0:	2b 81       	ldd	r18, Y+3	; 0x03
     9c2:	3c 81       	ldd	r19, Y+4	; 0x04
     9c4:	82 0f       	add	r24, r18
     9c6:	93 1f       	adc	r25, r19
     9c8:	4d 96       	adiw	r24, 0x1d	; 29
     9ca:	29 81       	ldd	r18, Y+1	; 0x01
     9cc:	fc 01       	movw	r30, r24
     9ce:	20 83       	st	Z, r18
     9d0:	8b 81       	ldd	r24, Y+3	; 0x03
     9d2:	9c 81       	ldd	r25, Y+4	; 0x04
     9d4:	2a 81       	ldd	r18, Y+2	; 0x02
     9d6:	fc 01       	movw	r30, r24
     9d8:	21 8f       	std	Z+25, r18	; 0x19
     9da:	07 c0       	rjmp	.+14     	; 0x9ea <_ZN14HardwareSerial16_rx_complete_irqEv+0x9c>
     9dc:	8b 81       	ldd	r24, Y+3	; 0x03
     9de:	9c 81       	ldd	r25, Y+4	; 0x04
     9e0:	fc 01       	movw	r30, r24
     9e2:	86 89       	ldd	r24, Z+22	; 0x16
     9e4:	97 89       	ldd	r25, Z+23	; 0x17
     9e6:	fc 01       	movw	r30, r24
     9e8:	80 81       	ld	r24, Z
     9ea:	0f 90       	pop	r0
     9ec:	0f 90       	pop	r0
     9ee:	0f 90       	pop	r0
     9f0:	0f 90       	pop	r0
     9f2:	df 91       	pop	r29
     9f4:	cf 91       	pop	r28
     9f6:	08 95       	ret

000009f8 <__vector_18>:
     9f8:	1f 92       	push	r1
     9fa:	0f 92       	push	r0
     9fc:	00 90 5f 00 	lds	r0, 0x005F
     a00:	0f 92       	push	r0
     a02:	11 24       	eor	r1, r1
     a04:	2f 93       	push	r18
     a06:	3f 93       	push	r19
     a08:	4f 93       	push	r20
     a0a:	5f 93       	push	r21
     a0c:	6f 93       	push	r22
     a0e:	7f 93       	push	r23
     a10:	8f 93       	push	r24
     a12:	9f 93       	push	r25
     a14:	af 93       	push	r26
     a16:	bf 93       	push	r27
     a18:	ef 93       	push	r30
     a1a:	ff 93       	push	r31
     a1c:	cf 93       	push	r28
     a1e:	df 93       	push	r29
     a20:	cd b7       	in	r28, 0x3d	; 61
     a22:	de b7       	in	r29, 0x3e	; 62
     a24:	85 e4       	ldi	r24, 0x45	; 69
     a26:	92 e0       	ldi	r25, 0x02	; 2
     a28:	0e 94 a7 04 	call	0x94e	; 0x94e <_ZN14HardwareSerial16_rx_complete_irqEv>
     a2c:	df 91       	pop	r29
     a2e:	cf 91       	pop	r28
     a30:	ff 91       	pop	r31
     a32:	ef 91       	pop	r30
     a34:	bf 91       	pop	r27
     a36:	af 91       	pop	r26
     a38:	9f 91       	pop	r25
     a3a:	8f 91       	pop	r24
     a3c:	7f 91       	pop	r23
     a3e:	6f 91       	pop	r22
     a40:	5f 91       	pop	r21
     a42:	4f 91       	pop	r20
     a44:	3f 91       	pop	r19
     a46:	2f 91       	pop	r18
     a48:	0f 90       	pop	r0
     a4a:	00 92 5f 00 	sts	0x005F, r0
     a4e:	0f 90       	pop	r0
     a50:	1f 90       	pop	r1
     a52:	18 95       	reti

00000a54 <__vector_19>:
     a54:	1f 92       	push	r1
     a56:	0f 92       	push	r0
     a58:	00 90 5f 00 	lds	r0, 0x005F
     a5c:	0f 92       	push	r0
     a5e:	11 24       	eor	r1, r1
     a60:	2f 93       	push	r18
     a62:	3f 93       	push	r19
     a64:	4f 93       	push	r20
     a66:	5f 93       	push	r21
     a68:	6f 93       	push	r22
     a6a:	7f 93       	push	r23
     a6c:	8f 93       	push	r24
     a6e:	9f 93       	push	r25
     a70:	af 93       	push	r26
     a72:	bf 93       	push	r27
     a74:	ef 93       	push	r30
     a76:	ff 93       	push	r31
     a78:	cf 93       	push	r28
     a7a:	df 93       	push	r29
     a7c:	cd b7       	in	r28, 0x3d	; 61
     a7e:	de b7       	in	r29, 0x3e	; 62
     a80:	85 e4       	ldi	r24, 0x45	; 69
     a82:	92 e0       	ldi	r25, 0x02	; 2
     a84:	0e 94 40 01 	call	0x280	; 0x280 <_ZN14HardwareSerial17_tx_udr_empty_irqEv>
     a88:	df 91       	pop	r29
     a8a:	cf 91       	pop	r28
     a8c:	ff 91       	pop	r31
     a8e:	ef 91       	pop	r30
     a90:	bf 91       	pop	r27
     a92:	af 91       	pop	r26
     a94:	9f 91       	pop	r25
     a96:	8f 91       	pop	r24
     a98:	7f 91       	pop	r23
     a9a:	6f 91       	pop	r22
     a9c:	5f 91       	pop	r21
     a9e:	4f 91       	pop	r20
     aa0:	3f 91       	pop	r19
     aa2:	2f 91       	pop	r18
     aa4:	0f 90       	pop	r0
     aa6:	00 92 5f 00 	sts	0x005F, r0
     aaa:	0f 90       	pop	r0
     aac:	1f 90       	pop	r1
     aae:	18 95       	reti

00000ab0 <_Z41__static_initialization_and_destruction_0ii>:
     ab0:	cf 92       	push	r12
     ab2:	df 92       	push	r13
     ab4:	ef 92       	push	r14
     ab6:	ff 92       	push	r15
     ab8:	0f 93       	push	r16
     aba:	1f 93       	push	r17
     abc:	cf 93       	push	r28
     abe:	df 93       	push	r29
     ac0:	00 d0       	rcall	.+0      	; 0xac2 <_Z41__static_initialization_and_destruction_0ii+0x12>
     ac2:	00 d0       	rcall	.+0      	; 0xac4 <_Z41__static_initialization_and_destruction_0ii+0x14>
     ac4:	cd b7       	in	r28, 0x3d	; 61
     ac6:	de b7       	in	r29, 0x3e	; 62
     ac8:	9a 83       	std	Y+2, r25	; 0x02
     aca:	89 83       	std	Y+1, r24	; 0x01
     acc:	7c 83       	std	Y+4, r23	; 0x04
     ace:	6b 83       	std	Y+3, r22	; 0x03
     ad0:	89 81       	ldd	r24, Y+1	; 0x01
     ad2:	9a 81       	ldd	r25, Y+2	; 0x02
     ad4:	01 97       	sbiw	r24, 0x01	; 1
     ad6:	d1 f4       	brne	.+52     	; 0xb0c <_Z41__static_initialization_and_destruction_0ii+0x5c>
     ad8:	8b 81       	ldd	r24, Y+3	; 0x03
     ada:	9c 81       	ldd	r25, Y+4	; 0x04
     adc:	01 96       	adiw	r24, 0x01	; 1
     ade:	b1 f4       	brne	.+44     	; 0xb0c <_Z41__static_initialization_and_destruction_0ii+0x5c>
     ae0:	0f 2e       	mov	r0, r31
     ae2:	f6 ec       	ldi	r31, 0xC6	; 198
     ae4:	cf 2e       	mov	r12, r31
     ae6:	d1 2c       	mov	r13, r1
     ae8:	f0 2d       	mov	r31, r0
     aea:	0f 2e       	mov	r0, r31
     aec:	f2 ec       	ldi	r31, 0xC2	; 194
     aee:	ef 2e       	mov	r14, r31
     af0:	f1 2c       	mov	r15, r1
     af2:	f0 2d       	mov	r31, r0
     af4:	01 ec       	ldi	r16, 0xC1	; 193
     af6:	10 e0       	ldi	r17, 0x00	; 0
     af8:	20 ec       	ldi	r18, 0xC0	; 192
     afa:	30 e0       	ldi	r19, 0x00	; 0
     afc:	44 ec       	ldi	r20, 0xC4	; 196
     afe:	50 e0       	ldi	r21, 0x00	; 0
     b00:	65 ec       	ldi	r22, 0xC5	; 197
     b02:	70 e0       	ldi	r23, 0x00	; 0
     b04:	85 e4       	ldi	r24, 0x45	; 69
     b06:	92 e0       	ldi	r25, 0x02	; 2
     b08:	0e 94 35 04 	call	0x86a	; 0x86a <_ZN14HardwareSerialC1EPVhS1_S1_S1_S1_S1_>
     b0c:	0f 90       	pop	r0
     b0e:	0f 90       	pop	r0
     b10:	0f 90       	pop	r0
     b12:	0f 90       	pop	r0
     b14:	df 91       	pop	r29
     b16:	cf 91       	pop	r28
     b18:	1f 91       	pop	r17
     b1a:	0f 91       	pop	r16
     b1c:	ff 90       	pop	r15
     b1e:	ef 90       	pop	r14
     b20:	df 90       	pop	r13
     b22:	cf 90       	pop	r12
     b24:	08 95       	ret

00000b26 <_GLOBAL__sub_I___vector_18>:
     b26:	cf 93       	push	r28
     b28:	df 93       	push	r29
     b2a:	cd b7       	in	r28, 0x3d	; 61
     b2c:	de b7       	in	r29, 0x3e	; 62
     b2e:	6f ef       	ldi	r22, 0xFF	; 255
     b30:	7f ef       	ldi	r23, 0xFF	; 255
     b32:	81 e0       	ldi	r24, 0x01	; 1
     b34:	90 e0       	ldi	r25, 0x00	; 0
     b36:	0e 94 58 05 	call	0xab0	; 0xab0 <_Z41__static_initialization_and_destruction_0ii>
     b3a:	df 91       	pop	r29
     b3c:	cf 91       	pop	r28
     b3e:	08 95       	ret

00000b40 <_ZN5Print5writeEPKc>:
     b40:	0f 93       	push	r16
     b42:	1f 93       	push	r17
     b44:	cf 93       	push	r28
     b46:	df 93       	push	r29
     b48:	00 d0       	rcall	.+0      	; 0xb4a <_ZN5Print5writeEPKc+0xa>
     b4a:	00 d0       	rcall	.+0      	; 0xb4c <_ZN5Print5writeEPKc+0xc>
     b4c:	cd b7       	in	r28, 0x3d	; 61
     b4e:	de b7       	in	r29, 0x3e	; 62
     b50:	9a 83       	std	Y+2, r25	; 0x02
     b52:	89 83       	std	Y+1, r24	; 0x01
     b54:	7c 83       	std	Y+4, r23	; 0x04
     b56:	6b 83       	std	Y+3, r22	; 0x03
     b58:	8b 81       	ldd	r24, Y+3	; 0x03
     b5a:	9c 81       	ldd	r25, Y+4	; 0x04
     b5c:	89 2b       	or	r24, r25
     b5e:	19 f4       	brne	.+6      	; 0xb66 <_ZN5Print5writeEPKc+0x26>
     b60:	80 e0       	ldi	r24, 0x00	; 0
     b62:	90 e0       	ldi	r25, 0x00	; 0
     b64:	15 c0       	rjmp	.+42     	; 0xb90 <_ZN5Print5writeEPKc+0x50>
     b66:	89 81       	ldd	r24, Y+1	; 0x01
     b68:	9a 81       	ldd	r25, Y+2	; 0x02
     b6a:	fc 01       	movw	r30, r24
     b6c:	80 81       	ld	r24, Z
     b6e:	91 81       	ldd	r25, Z+1	; 0x01
     b70:	02 96       	adiw	r24, 0x02	; 2
     b72:	fc 01       	movw	r30, r24
     b74:	00 81       	ld	r16, Z
     b76:	11 81       	ldd	r17, Z+1	; 0x01
     b78:	8b 81       	ldd	r24, Y+3	; 0x03
     b7a:	9c 81       	ldd	r25, Y+4	; 0x04
     b7c:	0e 94 26 0d 	call	0x1a4c	; 0x1a4c <strlen>
     b80:	ac 01       	movw	r20, r24
     b82:	2b 81       	ldd	r18, Y+3	; 0x03
     b84:	3c 81       	ldd	r19, Y+4	; 0x04
     b86:	89 81       	ldd	r24, Y+1	; 0x01
     b88:	9a 81       	ldd	r25, Y+2	; 0x02
     b8a:	b9 01       	movw	r22, r18
     b8c:	f8 01       	movw	r30, r16
     b8e:	09 95       	icall
     b90:	0f 90       	pop	r0
     b92:	0f 90       	pop	r0
     b94:	0f 90       	pop	r0
     b96:	0f 90       	pop	r0
     b98:	df 91       	pop	r29
     b9a:	cf 91       	pop	r28
     b9c:	1f 91       	pop	r17
     b9e:	0f 91       	pop	r16
     ba0:	08 95       	ret

00000ba2 <_ZN5Print5writeEPKhj>:
     ba2:	cf 93       	push	r28
     ba4:	df 93       	push	r29
     ba6:	cd b7       	in	r28, 0x3d	; 61
     ba8:	de b7       	in	r29, 0x3e	; 62
     baa:	28 97       	sbiw	r28, 0x08	; 8
     bac:	0f b6       	in	r0, 0x3f	; 63
     bae:	f8 94       	cli
     bb0:	de bf       	out	0x3e, r29	; 62
     bb2:	0f be       	out	0x3f, r0	; 63
     bb4:	cd bf       	out	0x3d, r28	; 61
     bb6:	9c 83       	std	Y+4, r25	; 0x04
     bb8:	8b 83       	std	Y+3, r24	; 0x03
     bba:	7e 83       	std	Y+6, r23	; 0x06
     bbc:	6d 83       	std	Y+5, r22	; 0x05
     bbe:	58 87       	std	Y+8, r21	; 0x08
     bc0:	4f 83       	std	Y+7, r20	; 0x07
     bc2:	1a 82       	std	Y+2, r1	; 0x02
     bc4:	19 82       	std	Y+1, r1	; 0x01
     bc6:	23 c0       	rjmp	.+70     	; 0xc0e <_ZN5Print5writeEPKhj+0x6c>
     bc8:	8b 81       	ldd	r24, Y+3	; 0x03
     bca:	9c 81       	ldd	r25, Y+4	; 0x04
     bcc:	fc 01       	movw	r30, r24
     bce:	80 81       	ld	r24, Z
     bd0:	91 81       	ldd	r25, Z+1	; 0x01
     bd2:	fc 01       	movw	r30, r24
     bd4:	20 81       	ld	r18, Z
     bd6:	31 81       	ldd	r19, Z+1	; 0x01
     bd8:	8d 81       	ldd	r24, Y+5	; 0x05
     bda:	9e 81       	ldd	r25, Y+6	; 0x06
     bdc:	ac 01       	movw	r20, r24
     bde:	4f 5f       	subi	r20, 0xFF	; 255
     be0:	5f 4f       	sbci	r21, 0xFF	; 255
     be2:	5e 83       	std	Y+6, r21	; 0x06
     be4:	4d 83       	std	Y+5, r20	; 0x05
     be6:	fc 01       	movw	r30, r24
     be8:	40 81       	ld	r20, Z
     bea:	8b 81       	ldd	r24, Y+3	; 0x03
     bec:	9c 81       	ldd	r25, Y+4	; 0x04
     bee:	64 2f       	mov	r22, r20
     bf0:	f9 01       	movw	r30, r18
     bf2:	09 95       	icall
     bf4:	21 e0       	ldi	r18, 0x01	; 1
     bf6:	89 2b       	or	r24, r25
     bf8:	09 f4       	brne	.+2      	; 0xbfc <_ZN5Print5writeEPKhj+0x5a>
     bfa:	20 e0       	ldi	r18, 0x00	; 0
     bfc:	22 23       	and	r18, r18
     bfe:	31 f0       	breq	.+12     	; 0xc0c <_ZN5Print5writeEPKhj+0x6a>
     c00:	89 81       	ldd	r24, Y+1	; 0x01
     c02:	9a 81       	ldd	r25, Y+2	; 0x02
     c04:	01 96       	adiw	r24, 0x01	; 1
     c06:	9a 83       	std	Y+2, r25	; 0x02
     c08:	89 83       	std	Y+1, r24	; 0x01
     c0a:	01 c0       	rjmp	.+2      	; 0xc0e <_ZN5Print5writeEPKhj+0x6c>
     c0c:	0d c0       	rjmp	.+26     	; 0xc28 <_ZN5Print5writeEPKhj+0x86>
     c0e:	8f 81       	ldd	r24, Y+7	; 0x07
     c10:	98 85       	ldd	r25, Y+8	; 0x08
     c12:	9c 01       	movw	r18, r24
     c14:	21 50       	subi	r18, 0x01	; 1
     c16:	31 09       	sbc	r19, r1
     c18:	38 87       	std	Y+8, r19	; 0x08
     c1a:	2f 83       	std	Y+7, r18	; 0x07
     c1c:	21 e0       	ldi	r18, 0x01	; 1
     c1e:	89 2b       	or	r24, r25
     c20:	09 f4       	brne	.+2      	; 0xc24 <_ZN5Print5writeEPKhj+0x82>
     c22:	20 e0       	ldi	r18, 0x00	; 0
     c24:	22 23       	and	r18, r18
     c26:	81 f6       	brne	.-96     	; 0xbc8 <_ZN5Print5writeEPKhj+0x26>
     c28:	89 81       	ldd	r24, Y+1	; 0x01
     c2a:	9a 81       	ldd	r25, Y+2	; 0x02
     c2c:	28 96       	adiw	r28, 0x08	; 8
     c2e:	0f b6       	in	r0, 0x3f	; 63
     c30:	f8 94       	cli
     c32:	de bf       	out	0x3e, r29	; 62
     c34:	0f be       	out	0x3f, r0	; 63
     c36:	cd bf       	out	0x3d, r28	; 61
     c38:	df 91       	pop	r29
     c3a:	cf 91       	pop	r28
     c3c:	08 95       	ret

00000c3e <_ZN5Print5printEPKc>:
     c3e:	cf 93       	push	r28
     c40:	df 93       	push	r29
     c42:	00 d0       	rcall	.+0      	; 0xc44 <_ZN5Print5printEPKc+0x6>
     c44:	00 d0       	rcall	.+0      	; 0xc46 <_ZN5Print5printEPKc+0x8>
     c46:	cd b7       	in	r28, 0x3d	; 61
     c48:	de b7       	in	r29, 0x3e	; 62
     c4a:	9a 83       	std	Y+2, r25	; 0x02
     c4c:	89 83       	std	Y+1, r24	; 0x01
     c4e:	7c 83       	std	Y+4, r23	; 0x04
     c50:	6b 83       	std	Y+3, r22	; 0x03
     c52:	2b 81       	ldd	r18, Y+3	; 0x03
     c54:	3c 81       	ldd	r19, Y+4	; 0x04
     c56:	89 81       	ldd	r24, Y+1	; 0x01
     c58:	9a 81       	ldd	r25, Y+2	; 0x02
     c5a:	b9 01       	movw	r22, r18
     c5c:	0e 94 a0 05 	call	0xb40	; 0xb40 <_ZN5Print5writeEPKc>
     c60:	0f 90       	pop	r0
     c62:	0f 90       	pop	r0
     c64:	0f 90       	pop	r0
     c66:	0f 90       	pop	r0
     c68:	df 91       	pop	r29
     c6a:	cf 91       	pop	r28
     c6c:	08 95       	ret

00000c6e <_ZN5Print7printlnEv>:
     c6e:	cf 93       	push	r28
     c70:	df 93       	push	r29
     c72:	00 d0       	rcall	.+0      	; 0xc74 <_ZN5Print7printlnEv+0x6>
     c74:	cd b7       	in	r28, 0x3d	; 61
     c76:	de b7       	in	r29, 0x3e	; 62
     c78:	9a 83       	std	Y+2, r25	; 0x02
     c7a:	89 83       	std	Y+1, r24	; 0x01
     c7c:	89 81       	ldd	r24, Y+1	; 0x01
     c7e:	9a 81       	ldd	r25, Y+2	; 0x02
     c80:	60 e0       	ldi	r22, 0x00	; 0
     c82:	71 e0       	ldi	r23, 0x01	; 1
     c84:	0e 94 a0 05 	call	0xb40	; 0xb40 <_ZN5Print5writeEPKc>
     c88:	0f 90       	pop	r0
     c8a:	0f 90       	pop	r0
     c8c:	df 91       	pop	r29
     c8e:	cf 91       	pop	r28
     c90:	08 95       	ret

00000c92 <_ZN5Print7printlnEPKc>:
     c92:	cf 93       	push	r28
     c94:	df 93       	push	r29
     c96:	00 d0       	rcall	.+0      	; 0xc98 <_ZN5Print7printlnEPKc+0x6>
     c98:	00 d0       	rcall	.+0      	; 0xc9a <_ZN5Print7printlnEPKc+0x8>
     c9a:	00 d0       	rcall	.+0      	; 0xc9c <_ZN5Print7printlnEPKc+0xa>
     c9c:	cd b7       	in	r28, 0x3d	; 61
     c9e:	de b7       	in	r29, 0x3e	; 62
     ca0:	9c 83       	std	Y+4, r25	; 0x04
     ca2:	8b 83       	std	Y+3, r24	; 0x03
     ca4:	7e 83       	std	Y+6, r23	; 0x06
     ca6:	6d 83       	std	Y+5, r22	; 0x05
     ca8:	2d 81       	ldd	r18, Y+5	; 0x05
     caa:	3e 81       	ldd	r19, Y+6	; 0x06
     cac:	8b 81       	ldd	r24, Y+3	; 0x03
     cae:	9c 81       	ldd	r25, Y+4	; 0x04
     cb0:	b9 01       	movw	r22, r18
     cb2:	0e 94 1f 06 	call	0xc3e	; 0xc3e <_ZN5Print5printEPKc>
     cb6:	9a 83       	std	Y+2, r25	; 0x02
     cb8:	89 83       	std	Y+1, r24	; 0x01
     cba:	8b 81       	ldd	r24, Y+3	; 0x03
     cbc:	9c 81       	ldd	r25, Y+4	; 0x04
     cbe:	0e 94 37 06 	call	0xc6e	; 0xc6e <_ZN5Print7printlnEv>
     cc2:	9c 01       	movw	r18, r24
     cc4:	89 81       	ldd	r24, Y+1	; 0x01
     cc6:	9a 81       	ldd	r25, Y+2	; 0x02
     cc8:	82 0f       	add	r24, r18
     cca:	93 1f       	adc	r25, r19
     ccc:	9a 83       	std	Y+2, r25	; 0x02
     cce:	89 83       	std	Y+1, r24	; 0x01
     cd0:	89 81       	ldd	r24, Y+1	; 0x01
     cd2:	9a 81       	ldd	r25, Y+2	; 0x02
     cd4:	26 96       	adiw	r28, 0x06	; 6
     cd6:	0f b6       	in	r0, 0x3f	; 63
     cd8:	f8 94       	cli
     cda:	de bf       	out	0x3e, r29	; 62
     cdc:	0f be       	out	0x3f, r0	; 63
     cde:	cd bf       	out	0x3d, r28	; 61
     ce0:	df 91       	pop	r29
     ce2:	cf 91       	pop	r28
     ce4:	08 95       	ret

00000ce6 <__vector_16>:
     ce6:	1f 92       	push	r1
     ce8:	0f 92       	push	r0
     cea:	00 90 5f 00 	lds	r0, 0x005F
     cee:	0f 92       	push	r0
     cf0:	11 24       	eor	r1, r1
     cf2:	8f 93       	push	r24
     cf4:	9f 93       	push	r25
     cf6:	af 93       	push	r26
     cf8:	bf 93       	push	r27
     cfa:	cf 93       	push	r28
     cfc:	df 93       	push	r29
     cfe:	cd b7       	in	r28, 0x3d	; 61
     d00:	de b7       	in	r29, 0x3e	; 62
     d02:	25 97       	sbiw	r28, 0x05	; 5
     d04:	de bf       	out	0x3e, r29	; 62
     d06:	cd bf       	out	0x3d, r28	; 61
     d08:	80 91 26 03 	lds	r24, 0x0326
     d0c:	90 91 27 03 	lds	r25, 0x0327
     d10:	a0 91 28 03 	lds	r26, 0x0328
     d14:	b0 91 29 03 	lds	r27, 0x0329
     d18:	89 83       	std	Y+1, r24	; 0x01
     d1a:	9a 83       	std	Y+2, r25	; 0x02
     d1c:	ab 83       	std	Y+3, r26	; 0x03
     d1e:	bc 83       	std	Y+4, r27	; 0x04
     d20:	80 91 2a 03 	lds	r24, 0x032A
     d24:	8d 83       	std	Y+5, r24	; 0x05
     d26:	89 81       	ldd	r24, Y+1	; 0x01
     d28:	9a 81       	ldd	r25, Y+2	; 0x02
     d2a:	ab 81       	ldd	r26, Y+3	; 0x03
     d2c:	bc 81       	ldd	r27, Y+4	; 0x04
     d2e:	01 96       	adiw	r24, 0x01	; 1
     d30:	a1 1d       	adc	r26, r1
     d32:	b1 1d       	adc	r27, r1
     d34:	89 83       	std	Y+1, r24	; 0x01
     d36:	9a 83       	std	Y+2, r25	; 0x02
     d38:	ab 83       	std	Y+3, r26	; 0x03
     d3a:	bc 83       	std	Y+4, r27	; 0x04
     d3c:	8d 81       	ldd	r24, Y+5	; 0x05
     d3e:	8d 5f       	subi	r24, 0xFD	; 253
     d40:	8d 83       	std	Y+5, r24	; 0x05
     d42:	8d 81       	ldd	r24, Y+5	; 0x05
     d44:	8d 37       	cpi	r24, 0x7D	; 125
     d46:	70 f0       	brcs	.+28     	; 0xd64 <__vector_16+0x7e>
     d48:	8d 81       	ldd	r24, Y+5	; 0x05
     d4a:	8d 57       	subi	r24, 0x7D	; 125
     d4c:	8d 83       	std	Y+5, r24	; 0x05
     d4e:	89 81       	ldd	r24, Y+1	; 0x01
     d50:	9a 81       	ldd	r25, Y+2	; 0x02
     d52:	ab 81       	ldd	r26, Y+3	; 0x03
     d54:	bc 81       	ldd	r27, Y+4	; 0x04
     d56:	01 96       	adiw	r24, 0x01	; 1
     d58:	a1 1d       	adc	r26, r1
     d5a:	b1 1d       	adc	r27, r1
     d5c:	89 83       	std	Y+1, r24	; 0x01
     d5e:	9a 83       	std	Y+2, r25	; 0x02
     d60:	ab 83       	std	Y+3, r26	; 0x03
     d62:	bc 83       	std	Y+4, r27	; 0x04
     d64:	8d 81       	ldd	r24, Y+5	; 0x05
     d66:	80 93 2a 03 	sts	0x032A, r24
     d6a:	89 81       	ldd	r24, Y+1	; 0x01
     d6c:	9a 81       	ldd	r25, Y+2	; 0x02
     d6e:	ab 81       	ldd	r26, Y+3	; 0x03
     d70:	bc 81       	ldd	r27, Y+4	; 0x04
     d72:	80 93 26 03 	sts	0x0326, r24
     d76:	90 93 27 03 	sts	0x0327, r25
     d7a:	a0 93 28 03 	sts	0x0328, r26
     d7e:	b0 93 29 03 	sts	0x0329, r27
     d82:	80 91 22 03 	lds	r24, 0x0322
     d86:	90 91 23 03 	lds	r25, 0x0323
     d8a:	a0 91 24 03 	lds	r26, 0x0324
     d8e:	b0 91 25 03 	lds	r27, 0x0325
     d92:	01 96       	adiw	r24, 0x01	; 1
     d94:	a1 1d       	adc	r26, r1
     d96:	b1 1d       	adc	r27, r1
     d98:	80 93 22 03 	sts	0x0322, r24
     d9c:	90 93 23 03 	sts	0x0323, r25
     da0:	a0 93 24 03 	sts	0x0324, r26
     da4:	b0 93 25 03 	sts	0x0325, r27
     da8:	0f 90       	pop	r0
     daa:	0f 90       	pop	r0
     dac:	0f 90       	pop	r0
     dae:	0f 90       	pop	r0
     db0:	0f 90       	pop	r0
     db2:	df 91       	pop	r29
     db4:	cf 91       	pop	r28
     db6:	bf 91       	pop	r27
     db8:	af 91       	pop	r26
     dba:	9f 91       	pop	r25
     dbc:	8f 91       	pop	r24
     dbe:	0f 90       	pop	r0
     dc0:	00 92 5f 00 	sts	0x005F, r0
     dc4:	0f 90       	pop	r0
     dc6:	1f 90       	pop	r1
     dc8:	18 95       	reti

00000dca <init>:
     dca:	cf 93       	push	r28
     dcc:	df 93       	push	r29
     dce:	cd b7       	in	r28, 0x3d	; 61
     dd0:	de b7       	in	r29, 0x3e	; 62
     dd2:	78 94       	sei
     dd4:	84 e4       	ldi	r24, 0x44	; 68
     dd6:	90 e0       	ldi	r25, 0x00	; 0
     dd8:	24 e4       	ldi	r18, 0x44	; 68
     dda:	30 e0       	ldi	r19, 0x00	; 0
     ddc:	f9 01       	movw	r30, r18
     dde:	20 81       	ld	r18, Z
     de0:	22 60       	ori	r18, 0x02	; 2
     de2:	fc 01       	movw	r30, r24
     de4:	20 83       	st	Z, r18
     de6:	84 e4       	ldi	r24, 0x44	; 68
     de8:	90 e0       	ldi	r25, 0x00	; 0
     dea:	24 e4       	ldi	r18, 0x44	; 68
     dec:	30 e0       	ldi	r19, 0x00	; 0
     dee:	f9 01       	movw	r30, r18
     df0:	20 81       	ld	r18, Z
     df2:	21 60       	ori	r18, 0x01	; 1
     df4:	fc 01       	movw	r30, r24
     df6:	20 83       	st	Z, r18
     df8:	85 e4       	ldi	r24, 0x45	; 69
     dfa:	90 e0       	ldi	r25, 0x00	; 0
     dfc:	25 e4       	ldi	r18, 0x45	; 69
     dfe:	30 e0       	ldi	r19, 0x00	; 0
     e00:	f9 01       	movw	r30, r18
     e02:	20 81       	ld	r18, Z
     e04:	22 60       	ori	r18, 0x02	; 2
     e06:	fc 01       	movw	r30, r24
     e08:	20 83       	st	Z, r18
     e0a:	85 e4       	ldi	r24, 0x45	; 69
     e0c:	90 e0       	ldi	r25, 0x00	; 0
     e0e:	25 e4       	ldi	r18, 0x45	; 69
     e10:	30 e0       	ldi	r19, 0x00	; 0
     e12:	f9 01       	movw	r30, r18
     e14:	20 81       	ld	r18, Z
     e16:	21 60       	ori	r18, 0x01	; 1
     e18:	fc 01       	movw	r30, r24
     e1a:	20 83       	st	Z, r18
     e1c:	8e e6       	ldi	r24, 0x6E	; 110
     e1e:	90 e0       	ldi	r25, 0x00	; 0
     e20:	2e e6       	ldi	r18, 0x6E	; 110
     e22:	30 e0       	ldi	r19, 0x00	; 0
     e24:	f9 01       	movw	r30, r18
     e26:	20 81       	ld	r18, Z
     e28:	21 60       	ori	r18, 0x01	; 1
     e2a:	fc 01       	movw	r30, r24
     e2c:	20 83       	st	Z, r18
     e2e:	81 e8       	ldi	r24, 0x81	; 129
     e30:	90 e0       	ldi	r25, 0x00	; 0
     e32:	fc 01       	movw	r30, r24
     e34:	10 82       	st	Z, r1
     e36:	81 e8       	ldi	r24, 0x81	; 129
     e38:	90 e0       	ldi	r25, 0x00	; 0
     e3a:	21 e8       	ldi	r18, 0x81	; 129
     e3c:	30 e0       	ldi	r19, 0x00	; 0
     e3e:	f9 01       	movw	r30, r18
     e40:	20 81       	ld	r18, Z
     e42:	22 60       	ori	r18, 0x02	; 2
     e44:	fc 01       	movw	r30, r24
     e46:	20 83       	st	Z, r18
     e48:	81 e8       	ldi	r24, 0x81	; 129
     e4a:	90 e0       	ldi	r25, 0x00	; 0
     e4c:	21 e8       	ldi	r18, 0x81	; 129
     e4e:	30 e0       	ldi	r19, 0x00	; 0
     e50:	f9 01       	movw	r30, r18
     e52:	20 81       	ld	r18, Z
     e54:	21 60       	ori	r18, 0x01	; 1
     e56:	fc 01       	movw	r30, r24
     e58:	20 83       	st	Z, r18
     e5a:	80 e8       	ldi	r24, 0x80	; 128
     e5c:	90 e0       	ldi	r25, 0x00	; 0
     e5e:	20 e8       	ldi	r18, 0x80	; 128
     e60:	30 e0       	ldi	r19, 0x00	; 0
     e62:	f9 01       	movw	r30, r18
     e64:	20 81       	ld	r18, Z
     e66:	21 60       	ori	r18, 0x01	; 1
     e68:	fc 01       	movw	r30, r24
     e6a:	20 83       	st	Z, r18
     e6c:	81 eb       	ldi	r24, 0xB1	; 177
     e6e:	90 e0       	ldi	r25, 0x00	; 0
     e70:	21 eb       	ldi	r18, 0xB1	; 177
     e72:	30 e0       	ldi	r19, 0x00	; 0
     e74:	f9 01       	movw	r30, r18
     e76:	20 81       	ld	r18, Z
     e78:	24 60       	ori	r18, 0x04	; 4
     e7a:	fc 01       	movw	r30, r24
     e7c:	20 83       	st	Z, r18
     e7e:	80 eb       	ldi	r24, 0xB0	; 176
     e80:	90 e0       	ldi	r25, 0x00	; 0
     e82:	20 eb       	ldi	r18, 0xB0	; 176
     e84:	30 e0       	ldi	r19, 0x00	; 0
     e86:	f9 01       	movw	r30, r18
     e88:	20 81       	ld	r18, Z
     e8a:	21 60       	ori	r18, 0x01	; 1
     e8c:	fc 01       	movw	r30, r24
     e8e:	20 83       	st	Z, r18
     e90:	8a e7       	ldi	r24, 0x7A	; 122
     e92:	90 e0       	ldi	r25, 0x00	; 0
     e94:	2a e7       	ldi	r18, 0x7A	; 122
     e96:	30 e0       	ldi	r19, 0x00	; 0
     e98:	f9 01       	movw	r30, r18
     e9a:	20 81       	ld	r18, Z
     e9c:	24 60       	ori	r18, 0x04	; 4
     e9e:	fc 01       	movw	r30, r24
     ea0:	20 83       	st	Z, r18
     ea2:	8a e7       	ldi	r24, 0x7A	; 122
     ea4:	90 e0       	ldi	r25, 0x00	; 0
     ea6:	2a e7       	ldi	r18, 0x7A	; 122
     ea8:	30 e0       	ldi	r19, 0x00	; 0
     eaa:	f9 01       	movw	r30, r18
     eac:	20 81       	ld	r18, Z
     eae:	22 60       	ori	r18, 0x02	; 2
     eb0:	fc 01       	movw	r30, r24
     eb2:	20 83       	st	Z, r18
     eb4:	8a e7       	ldi	r24, 0x7A	; 122
     eb6:	90 e0       	ldi	r25, 0x00	; 0
     eb8:	2a e7       	ldi	r18, 0x7A	; 122
     eba:	30 e0       	ldi	r19, 0x00	; 0
     ebc:	f9 01       	movw	r30, r18
     ebe:	20 81       	ld	r18, Z
     ec0:	21 60       	ori	r18, 0x01	; 1
     ec2:	fc 01       	movw	r30, r24
     ec4:	20 83       	st	Z, r18
     ec6:	8a e7       	ldi	r24, 0x7A	; 122
     ec8:	90 e0       	ldi	r25, 0x00	; 0
     eca:	2a e7       	ldi	r18, 0x7A	; 122
     ecc:	30 e0       	ldi	r19, 0x00	; 0
     ece:	f9 01       	movw	r30, r18
     ed0:	20 81       	ld	r18, Z
     ed2:	20 68       	ori	r18, 0x80	; 128
     ed4:	fc 01       	movw	r30, r24
     ed6:	20 83       	st	Z, r18
     ed8:	81 ec       	ldi	r24, 0xC1	; 193
     eda:	90 e0       	ldi	r25, 0x00	; 0
     edc:	fc 01       	movw	r30, r24
     ede:	10 82       	st	Z, r1
     ee0:	df 91       	pop	r29
     ee2:	cf 91       	pop	r28
     ee4:	08 95       	ret

00000ee6 <__cxa_pure_virtual>:
     ee6:	cf 93       	push	r28
     ee8:	df 93       	push	r29
     eea:	cd b7       	in	r28, 0x3d	; 61
     eec:	de b7       	in	r29, 0x3e	; 62
     eee:	0e 94 18 0d 	call	0x1a30	; 0x1a30 <abort>

00000ef2 <_ZN14SoftwareSerial4readEv>:
uint16_t SoftwareSerial::subtract_cap(uint16_t num, uint16_t sub) {
  if (num > sub)
    return num - sub;
  else
    return 1;
}
     ef2:	20 91 6d 03 	lds	r18, 0x036D
     ef6:	30 91 6e 03 	lds	r19, 0x036E
     efa:	28 17       	cp	r18, r24
     efc:	39 07       	cpc	r19, r25
     efe:	b9 f4       	brne	.+46     	; 0xf2e <_ZN14SoftwareSerial4readEv+0x3c>
     f00:	90 91 2b 03 	lds	r25, 0x032B
     f04:	80 91 2c 03 	lds	r24, 0x032C
     f08:	98 17       	cp	r25, r24
     f0a:	89 f0       	breq	.+34     	; 0xf2e <_ZN14SoftwareSerial4readEv+0x3c>
     f0c:	e0 91 2b 03 	lds	r30, 0x032B
     f10:	f0 e0       	ldi	r31, 0x00	; 0
     f12:	e3 5d       	subi	r30, 0xD3	; 211
     f14:	fc 4f       	sbci	r31, 0xFC	; 252
     f16:	80 81       	ld	r24, Z
     f18:	20 91 2b 03 	lds	r18, 0x032B
     f1c:	30 e0       	ldi	r19, 0x00	; 0
     f1e:	2f 5f       	subi	r18, 0xFF	; 255
     f20:	3f 4f       	sbci	r19, 0xFF	; 255
     f22:	2f 73       	andi	r18, 0x3F	; 63
     f24:	33 27       	eor	r19, r19
     f26:	20 93 2b 03 	sts	0x032B, r18
     f2a:	90 e0       	ldi	r25, 0x00	; 0
     f2c:	08 95       	ret
     f2e:	8f ef       	ldi	r24, 0xFF	; 255
     f30:	9f ef       	ldi	r25, 0xFF	; 255
     f32:	08 95       	ret

00000f34 <_ZN14SoftwareSerial5writeEh>:
     f34:	1f 93       	push	r17
     f36:	cf 93       	push	r28
     f38:	df 93       	push	r29
     f3a:	dc 01       	movw	r26, r24
     f3c:	5c 96       	adiw	r26, 0x1c	; 28
     f3e:	2d 91       	ld	r18, X+
     f40:	3c 91       	ld	r19, X
     f42:	5d 97       	sbiw	r26, 0x1d	; 29
     f44:	21 15       	cp	r18, r1
     f46:	31 05       	cpc	r19, r1
     f48:	39 f4       	brne	.+14     	; 0xf58 <_ZN14SoftwareSerial5writeEh+0x24>
     f4a:	81 e0       	ldi	r24, 0x01	; 1
     f4c:	90 e0       	ldi	r25, 0x00	; 0
     f4e:	13 96       	adiw	r26, 0x03	; 3
     f50:	9c 93       	st	X, r25
     f52:	8e 93       	st	-X, r24
     f54:	12 97       	sbiw	r26, 0x02	; 2
     f56:	3d c0       	rjmp	.+122    	; 0xfd2 <_ZN14SoftwareSerial5writeEh+0x9e>
     f58:	51 96       	adiw	r26, 0x11	; 17
     f5a:	ed 91       	ld	r30, X+
     f5c:	fc 91       	ld	r31, X
     f5e:	52 97       	sbiw	r26, 0x12	; 18
     f60:	50 96       	adiw	r26, 0x10	; 16
     f62:	9c 91       	ld	r25, X
     f64:	50 97       	sbiw	r26, 0x10	; 16
     f66:	89 2f       	mov	r24, r25
     f68:	80 95       	com	r24
     f6a:	1f b7       	in	r17, 0x3f	; 63
     f6c:	5e 96       	adiw	r26, 0x1e	; 30
     f6e:	4c 91       	ld	r20, X
     f70:	5e 97       	sbiw	r26, 0x1e	; 30
     f72:	41 fb       	bst	r20, 1
     f74:	77 27       	eor	r23, r23
     f76:	70 f9       	bld	r23, 0
     f78:	41 fd       	sbrc	r20, 1
     f7a:	60 95       	com	r22
     f7c:	f8 94       	cli
     f7e:	40 81       	ld	r20, Z
     f80:	77 23       	and	r23, r23
     f82:	11 f0       	breq	.+4      	; 0xf88 <_ZN14SoftwareSerial5writeEh+0x54>
     f84:	49 2b       	or	r20, r25
     f86:	01 c0       	rjmp	.+2      	; 0xf8a <_ZN14SoftwareSerial5writeEh+0x56>
     f88:	48 23       	and	r20, r24
     f8a:	40 83       	st	Z, r20
     f8c:	e9 01       	movw	r28, r18
     f8e:	21 97       	sbiw	r28, 0x01	; 1
     f90:	f1 f7       	brne	.-4      	; 0xf8e <_ZN14SoftwareSerial5writeEh+0x5a>
     f92:	48 e0       	ldi	r20, 0x08	; 8
     f94:	50 81       	ld	r21, Z
     f96:	60 ff       	sbrs	r22, 0
     f98:	02 c0       	rjmp	.+4      	; 0xf9e <_ZN14SoftwareSerial5writeEh+0x6a>
     f9a:	59 2b       	or	r21, r25
     f9c:	01 c0       	rjmp	.+2      	; 0xfa0 <_ZN14SoftwareSerial5writeEh+0x6c>
     f9e:	58 23       	and	r21, r24
     fa0:	50 83       	st	Z, r21
     fa2:	e9 01       	movw	r28, r18
     fa4:	21 97       	sbiw	r28, 0x01	; 1
     fa6:	f1 f7       	brne	.-4      	; 0xfa4 <_ZN14SoftwareSerial5writeEh+0x70>
     fa8:	66 95       	lsr	r22
     faa:	41 50       	subi	r20, 0x01	; 1
     fac:	99 f7       	brne	.-26     	; 0xf94 <_ZN14SoftwareSerial5writeEh+0x60>
     fae:	77 23       	and	r23, r23
     fb0:	21 f0       	breq	.+8      	; 0xfba <_ZN14SoftwareSerial5writeEh+0x86>
     fb2:	90 81       	ld	r25, Z
     fb4:	89 23       	and	r24, r25
     fb6:	80 83       	st	Z, r24
     fb8:	03 c0       	rjmp	.+6      	; 0xfc0 <_ZN14SoftwareSerial5writeEh+0x8c>
     fba:	80 81       	ld	r24, Z
     fbc:	98 2b       	or	r25, r24
     fbe:	90 83       	st	Z, r25
     fc0:	1f bf       	out	0x3f, r17	; 63
     fc2:	5c 96       	adiw	r26, 0x1c	; 28
     fc4:	8d 91       	ld	r24, X+
     fc6:	9c 91       	ld	r25, X
     fc8:	5d 97       	sbiw	r26, 0x1d	; 29
     fca:	01 97       	sbiw	r24, 0x01	; 1
     fcc:	f1 f7       	brne	.-4      	; 0xfca <_ZN14SoftwareSerial5writeEh+0x96>
     fce:	21 e0       	ldi	r18, 0x01	; 1
     fd0:	30 e0       	ldi	r19, 0x00	; 0
     fd2:	c9 01       	movw	r24, r18
     fd4:	df 91       	pop	r29
     fd6:	cf 91       	pop	r28
     fd8:	1f 91       	pop	r17
     fda:	08 95       	ret

00000fdc <_ZN14SoftwareSerial5flushEv>:
     fdc:	08 95       	ret

00000fde <_ZN14SoftwareSerial4peekEv>:
     fde:	20 91 6d 03 	lds	r18, 0x036D
     fe2:	30 91 6e 03 	lds	r19, 0x036E
     fe6:	28 17       	cp	r18, r24
     fe8:	39 07       	cpc	r19, r25
     fea:	71 f4       	brne	.+28     	; 0x1008 <_ZN14SoftwareSerial4peekEv+0x2a>
     fec:	90 91 2b 03 	lds	r25, 0x032B
     ff0:	80 91 2c 03 	lds	r24, 0x032C
     ff4:	98 17       	cp	r25, r24
     ff6:	41 f0       	breq	.+16     	; 0x1008 <_ZN14SoftwareSerial4peekEv+0x2a>
     ff8:	e0 91 2b 03 	lds	r30, 0x032B
     ffc:	f0 e0       	ldi	r31, 0x00	; 0
     ffe:	e3 5d       	subi	r30, 0xD3	; 211
    1000:	fc 4f       	sbci	r31, 0xFC	; 252
    1002:	80 81       	ld	r24, Z
    1004:	90 e0       	ldi	r25, 0x00	; 0
    1006:	08 95       	ret
    1008:	8f ef       	ldi	r24, 0xFF	; 255
    100a:	9f ef       	ldi	r25, 0xFF	; 255
    100c:	08 95       	ret

0000100e <_ZN14SoftwareSerial9availableEv>:
    100e:	20 91 6d 03 	lds	r18, 0x036D
    1012:	30 91 6e 03 	lds	r19, 0x036E
    1016:	28 17       	cp	r18, r24
    1018:	39 07       	cpc	r19, r25
    101a:	71 f4       	brne	.+28     	; 0x1038 <_ZN14SoftwareSerial9availableEv+0x2a>
    101c:	80 91 2c 03 	lds	r24, 0x032C
    1020:	20 91 2b 03 	lds	r18, 0x032B
    1024:	90 e0       	ldi	r25, 0x00	; 0
    1026:	80 5c       	subi	r24, 0xC0	; 192
    1028:	9f 4f       	sbci	r25, 0xFF	; 255
    102a:	82 1b       	sub	r24, r18
    102c:	91 09       	sbc	r25, r1
    102e:	60 e4       	ldi	r22, 0x40	; 64
    1030:	70 e0       	ldi	r23, 0x00	; 0
    1032:	0e 94 98 0b 	call	0x1730	; 0x1730 <__divmodhi4>
    1036:	08 95       	ret
    1038:	80 e0       	ldi	r24, 0x00	; 0
    103a:	90 e0       	ldi	r25, 0x00	; 0
    103c:	08 95       	ret

0000103e <_ZN14SoftwareSerial13stopListeningEv>:
    103e:	e0 91 6d 03 	lds	r30, 0x036D
    1042:	f0 91 6e 03 	lds	r31, 0x036E
    1046:	e8 17       	cp	r30, r24
    1048:	f9 07       	cpc	r31, r25
    104a:	69 f4       	brne	.+26     	; 0x1066 <_ZN14SoftwareSerial13stopListeningEv+0x28>
    104c:	a3 89       	ldd	r26, Z+19	; 0x13
    104e:	b4 89       	ldd	r27, Z+20	; 0x14
    1050:	9c 91       	ld	r25, X
    1052:	85 89       	ldd	r24, Z+21	; 0x15
    1054:	80 95       	com	r24
    1056:	89 23       	and	r24, r25
    1058:	8c 93       	st	X, r24
    105a:	10 92 6e 03 	sts	0x036E, r1
    105e:	10 92 6d 03 	sts	0x036D, r1
    1062:	81 e0       	ldi	r24, 0x01	; 1
    1064:	08 95       	ret
    1066:	80 e0       	ldi	r24, 0x00	; 0
    1068:	08 95       	ret

0000106a <_ZN14SoftwareSerial6listenEv>:
    106a:	cf 93       	push	r28
    106c:	df 93       	push	r29
    106e:	ec 01       	movw	r28, r24
    1070:	8a 8d       	ldd	r24, Y+26	; 0x1a
    1072:	9b 8d       	ldd	r25, Y+27	; 0x1b
    1074:	89 2b       	or	r24, r25
    1076:	f1 f0       	breq	.+60     	; 0x10b4 <_ZN14SoftwareSerial6listenEv+0x4a>
    1078:	80 91 6d 03 	lds	r24, 0x036D
    107c:	90 91 6e 03 	lds	r25, 0x036E
    1080:	8c 17       	cp	r24, r28
    1082:	9d 07       	cpc	r25, r29
    1084:	b9 f0       	breq	.+46     	; 0x10b4 <_ZN14SoftwareSerial6listenEv+0x4a>
    1086:	00 97       	sbiw	r24, 0x00	; 0
    1088:	11 f0       	breq	.+4      	; 0x108e <_ZN14SoftwareSerial6listenEv+0x24>
    108a:	0e 94 1f 08 	call	0x103e	; 0x103e <_ZN14SoftwareSerial13stopListeningEv>
    108e:	8e 8d       	ldd	r24, Y+30	; 0x1e
    1090:	8e 7f       	andi	r24, 0xFE	; 254
    1092:	8e 8f       	std	Y+30, r24	; 0x1e
    1094:	10 92 2c 03 	sts	0x032C, r1
    1098:	10 92 2b 03 	sts	0x032B, r1
    109c:	d0 93 6e 03 	sts	0x036E, r29
    10a0:	c0 93 6d 03 	sts	0x036D, r28
    10a4:	eb 89       	ldd	r30, Y+19	; 0x13
    10a6:	fc 89       	ldd	r31, Y+20	; 0x14
    10a8:	90 81       	ld	r25, Z
    10aa:	8d 89       	ldd	r24, Y+21	; 0x15
    10ac:	89 2b       	or	r24, r25
    10ae:	80 83       	st	Z, r24
    10b0:	81 e0       	ldi	r24, 0x01	; 1
    10b2:	01 c0       	rjmp	.+2      	; 0x10b6 <_ZN14SoftwareSerial6listenEv+0x4c>
    10b4:	80 e0       	ldi	r24, 0x00	; 0
    10b6:	df 91       	pop	r29
    10b8:	cf 91       	pop	r28
    10ba:	08 95       	ret

000010bc <__vector_3>:
    10bc:	1f 92       	push	r1
    10be:	0f 92       	push	r0
    10c0:	0f b6       	in	r0, 0x3f	; 63
    10c2:	0f 92       	push	r0
    10c4:	11 24       	eor	r1, r1
    10c6:	2f 93       	push	r18
    10c8:	3f 93       	push	r19
    10ca:	4f 93       	push	r20
    10cc:	5f 93       	push	r21
    10ce:	6f 93       	push	r22
    10d0:	7f 93       	push	r23
    10d2:	8f 93       	push	r24
    10d4:	9f 93       	push	r25
    10d6:	af 93       	push	r26
    10d8:	bf 93       	push	r27
    10da:	ef 93       	push	r30
    10dc:	ff 93       	push	r31
    10de:	e0 91 6d 03 	lds	r30, 0x036D
    10e2:	f0 91 6e 03 	lds	r31, 0x036E
    10e6:	30 97       	sbiw	r30, 0x00	; 0
    10e8:	09 f4       	brne	.+2      	; 0x10ec <__vector_3+0x30>
    10ea:	51 c0       	rjmp	.+162    	; 0x118e <__vector_3+0xd2>
    10ec:	96 8d       	ldd	r25, Z+30	; 0x1e
    10ee:	a6 85       	ldd	r26, Z+14	; 0x0e
    10f0:	b7 85       	ldd	r27, Z+15	; 0x0f
    10f2:	85 85       	ldd	r24, Z+13	; 0x0d
    10f4:	91 ff       	sbrs	r25, 1
    10f6:	04 c0       	rjmp	.+8      	; 0x1100 <__vector_3+0x44>
    10f8:	9c 91       	ld	r25, X
    10fa:	89 23       	and	r24, r25
    10fc:	29 f4       	brne	.+10     	; 0x1108 <__vector_3+0x4c>
    10fe:	47 c0       	rjmp	.+142    	; 0x118e <__vector_3+0xd2>
    1100:	9c 91       	ld	r25, X
    1102:	89 23       	and	r24, r25
    1104:	09 f0       	breq	.+2      	; 0x1108 <__vector_3+0x4c>
    1106:	43 c0       	rjmp	.+134    	; 0x118e <__vector_3+0xd2>
    1108:	a3 89       	ldd	r26, Z+19	; 0x13
    110a:	b4 89       	ldd	r27, Z+20	; 0x14
    110c:	9c 91       	ld	r25, X
    110e:	85 89       	ldd	r24, Z+21	; 0x15
    1110:	80 95       	com	r24
    1112:	89 23       	and	r24, r25
    1114:	8c 93       	st	X, r24
    1116:	86 89       	ldd	r24, Z+22	; 0x16
    1118:	97 89       	ldd	r25, Z+23	; 0x17
    111a:	01 97       	sbiw	r24, 0x01	; 1
    111c:	f1 f7       	brne	.-4      	; 0x111a <__vector_3+0x5e>
    111e:	60 8d       	ldd	r22, Z+24	; 0x18
    1120:	71 8d       	ldd	r23, Z+25	; 0x19
    1122:	a6 85       	ldd	r26, Z+14	; 0x0e
    1124:	b7 85       	ldd	r27, Z+15	; 0x0f
    1126:	55 85       	ldd	r21, Z+13	; 0x0d
    1128:	38 e0       	ldi	r19, 0x08	; 8
    112a:	20 e0       	ldi	r18, 0x00	; 0
    112c:	cb 01       	movw	r24, r22
    112e:	01 97       	sbiw	r24, 0x01	; 1
    1130:	f1 f7       	brne	.-4      	; 0x112e <__vector_3+0x72>
    1132:	82 2f       	mov	r24, r18
    1134:	90 e0       	ldi	r25, 0x00	; 0
    1136:	95 95       	asr	r25
    1138:	87 95       	ror	r24
    113a:	28 2f       	mov	r18, r24
    113c:	4c 91       	ld	r20, X
    113e:	45 23       	and	r20, r21
    1140:	09 f0       	breq	.+2      	; 0x1144 <__vector_3+0x88>
    1142:	20 68       	ori	r18, 0x80	; 128
    1144:	31 50       	subi	r19, 0x01	; 1
    1146:	91 f7       	brne	.-28     	; 0x112c <__vector_3+0x70>
    1148:	86 8d       	ldd	r24, Z+30	; 0x1e
    114a:	81 fd       	sbrc	r24, 1
    114c:	20 95       	com	r18
    114e:	80 91 2c 03 	lds	r24, 0x032C
    1152:	90 e0       	ldi	r25, 0x00	; 0
    1154:	01 96       	adiw	r24, 0x01	; 1
    1156:	8f 73       	andi	r24, 0x3F	; 63
    1158:	99 27       	eor	r25, r25
    115a:	30 91 2b 03 	lds	r19, 0x032B
    115e:	38 17       	cp	r19, r24
    1160:	49 f0       	breq	.+18     	; 0x1174 <__vector_3+0xb8>
    1162:	a0 91 2c 03 	lds	r26, 0x032C
    1166:	b0 e0       	ldi	r27, 0x00	; 0
    1168:	a3 5d       	subi	r26, 0xD3	; 211
    116a:	bc 4f       	sbci	r27, 0xFC	; 252
    116c:	2c 93       	st	X, r18
    116e:	80 93 2c 03 	sts	0x032C, r24
    1172:	03 c0       	rjmp	.+6      	; 0x117a <__vector_3+0xbe>
    1174:	86 8d       	ldd	r24, Z+30	; 0x1e
    1176:	81 60       	ori	r24, 0x01	; 1
    1178:	86 8f       	std	Z+30, r24	; 0x1e
    117a:	82 8d       	ldd	r24, Z+26	; 0x1a
    117c:	93 8d       	ldd	r25, Z+27	; 0x1b
    117e:	01 97       	sbiw	r24, 0x01	; 1
    1180:	f1 f7       	brne	.-4      	; 0x117e <__vector_3+0xc2>
    1182:	a3 89       	ldd	r26, Z+19	; 0x13
    1184:	b4 89       	ldd	r27, Z+20	; 0x14
    1186:	9c 91       	ld	r25, X
    1188:	85 89       	ldd	r24, Z+21	; 0x15
    118a:	89 2b       	or	r24, r25
    118c:	8c 93       	st	X, r24
    118e:	ff 91       	pop	r31
    1190:	ef 91       	pop	r30
    1192:	bf 91       	pop	r27
    1194:	af 91       	pop	r26
    1196:	9f 91       	pop	r25
    1198:	8f 91       	pop	r24
    119a:	7f 91       	pop	r23
    119c:	6f 91       	pop	r22
    119e:	5f 91       	pop	r21
    11a0:	4f 91       	pop	r20
    11a2:	3f 91       	pop	r19
    11a4:	2f 91       	pop	r18
    11a6:	0f 90       	pop	r0
    11a8:	0f be       	out	0x3f, r0	; 63
    11aa:	0f 90       	pop	r0
    11ac:	1f 90       	pop	r1
    11ae:	18 95       	reti

000011b0 <_ZN14SoftwareSerialD1Ev>:
    11b0:	29 e9       	ldi	r18, 0x99	; 153
    11b2:	31 e0       	ldi	r19, 0x01	; 1
    11b4:	fc 01       	movw	r30, r24
    11b6:	31 83       	std	Z+1, r19	; 0x01
    11b8:	20 83       	st	Z, r18
    11ba:	0c 94 1f 08 	jmp	0x103e	; 0x103e <_ZN14SoftwareSerial13stopListeningEv>

000011be <_ZN14SoftwareSerial5setTXEh>:
    11be:	1f 93       	push	r17
    11c0:	cf 93       	push	r28
    11c2:	df 93       	push	r29
    11c4:	ec 01       	movw	r28, r24
    11c6:	16 2f       	mov	r17, r22
    11c8:	6e 8d       	ldd	r22, Y+30	; 0x1e
    11ca:	66 95       	lsr	r22
    11cc:	61 70       	andi	r22, 0x01	; 1
    11ce:	81 e0       	ldi	r24, 0x01	; 1
    11d0:	68 27       	eor	r22, r24
    11d2:	81 2f       	mov	r24, r17
    11d4:	0e 94 11 0b 	call	0x1622	; 0x1622 <digitalWrite>
    11d8:	61 e0       	ldi	r22, 0x01	; 1
    11da:	81 2f       	mov	r24, r17
    11dc:	0e 94 ea 09 	call	0x13d4	; 0x13d4 <pinMode>
    11e0:	61 2f       	mov	r22, r17
    11e2:	70 e0       	ldi	r23, 0x00	; 0
    11e4:	fb 01       	movw	r30, r22
    11e6:	e6 56       	subi	r30, 0x66	; 102
    11e8:	ff 4f       	sbci	r31, 0xFF	; 255
    11ea:	e4 91       	lpm	r30, Z
    11ec:	e8 8b       	std	Y+16, r30	; 0x10
    11ee:	fb 01       	movw	r30, r22
    11f0:	ea 57       	subi	r30, 0x7A	; 122
    11f2:	ff 4f       	sbci	r31, 0xFF	; 255
    11f4:	e4 91       	lpm	r30, Z
    11f6:	f0 e0       	ldi	r31, 0x00	; 0
    11f8:	ee 0f       	add	r30, r30
    11fa:	ff 1f       	adc	r31, r31
    11fc:	ee 58       	subi	r30, 0x8E	; 142
    11fe:	ff 4f       	sbci	r31, 0xFF	; 255
    1200:	85 91       	lpm	r24, Z+
    1202:	94 91       	lpm	r25, Z
    1204:	9a 8b       	std	Y+18, r25	; 0x12
    1206:	89 8b       	std	Y+17, r24	; 0x11
    1208:	df 91       	pop	r29
    120a:	cf 91       	pop	r28
    120c:	1f 91       	pop	r17
    120e:	08 95       	ret

00001210 <_ZN14SoftwareSerial5setRXEh>:
    1210:	1f 93       	push	r17
    1212:	cf 93       	push	r28
    1214:	df 93       	push	r29
    1216:	ec 01       	movw	r28, r24
    1218:	16 2f       	mov	r17, r22
    121a:	60 e0       	ldi	r22, 0x00	; 0
    121c:	81 2f       	mov	r24, r17
    121e:	0e 94 ea 09 	call	0x13d4	; 0x13d4 <pinMode>
    1222:	8e 8d       	ldd	r24, Y+30	; 0x1e
    1224:	81 fd       	sbrc	r24, 1
    1226:	04 c0       	rjmp	.+8      	; 0x1230 <_ZN14SoftwareSerial5setRXEh+0x20>
    1228:	61 e0       	ldi	r22, 0x01	; 1
    122a:	81 2f       	mov	r24, r17
    122c:	0e 94 11 0b 	call	0x1622	; 0x1622 <digitalWrite>
    1230:	1c 87       	std	Y+12, r17	; 0x0c
    1232:	61 2f       	mov	r22, r17
    1234:	70 e0       	ldi	r23, 0x00	; 0
    1236:	fb 01       	movw	r30, r22
    1238:	e6 56       	subi	r30, 0x66	; 102
    123a:	ff 4f       	sbci	r31, 0xFF	; 255
    123c:	e4 91       	lpm	r30, Z
    123e:	ed 87       	std	Y+13, r30	; 0x0d
    1240:	fb 01       	movw	r30, r22
    1242:	ea 57       	subi	r30, 0x7A	; 122
    1244:	ff 4f       	sbci	r31, 0xFF	; 255
    1246:	e4 91       	lpm	r30, Z
    1248:	f0 e0       	ldi	r31, 0x00	; 0
    124a:	ee 0f       	add	r30, r30
    124c:	ff 1f       	adc	r31, r31
    124e:	e4 58       	subi	r30, 0x84	; 132
    1250:	ff 4f       	sbci	r31, 0xFF	; 255
    1252:	85 91       	lpm	r24, Z+
    1254:	94 91       	lpm	r25, Z
    1256:	9f 87       	std	Y+15, r25	; 0x0f
    1258:	8e 87       	std	Y+14, r24	; 0x0e
    125a:	df 91       	pop	r29
    125c:	cf 91       	pop	r28
    125e:	1f 91       	pop	r17
    1260:	08 95       	ret

00001262 <_ZN14SoftwareSerialC1Ehhb>:
    1262:	1f 93       	push	r17
    1264:	cf 93       	push	r28
    1266:	df 93       	push	r29
    1268:	ec 01       	movw	r28, r24
    126a:	16 2f       	mov	r17, r22
    126c:	1b 82       	std	Y+3, r1	; 0x03
    126e:	1a 82       	std	Y+2, r1	; 0x02
    1270:	88 ee       	ldi	r24, 0xE8	; 232
    1272:	93 e0       	ldi	r25, 0x03	; 3
    1274:	a0 e0       	ldi	r26, 0x00	; 0
    1276:	b0 e0       	ldi	r27, 0x00	; 0
    1278:	8c 83       	std	Y+4, r24	; 0x04
    127a:	9d 83       	std	Y+5, r25	; 0x05
    127c:	ae 83       	std	Y+6, r26	; 0x06
    127e:	bf 83       	std	Y+7, r27	; 0x07
    1280:	89 e9       	ldi	r24, 0x99	; 153
    1282:	91 e0       	ldi	r25, 0x01	; 1
    1284:	99 83       	std	Y+1, r25	; 0x01
    1286:	88 83       	st	Y, r24
    1288:	1f 8a       	std	Y+23, r1	; 0x17
    128a:	1e 8a       	std	Y+22, r1	; 0x16
    128c:	19 8e       	std	Y+25, r1	; 0x19
    128e:	18 8e       	std	Y+24, r1	; 0x18
    1290:	1b 8e       	std	Y+27, r1	; 0x1b
    1292:	1a 8e       	std	Y+26, r1	; 0x1a
    1294:	1d 8e       	std	Y+29, r1	; 0x1d
    1296:	1c 8e       	std	Y+28, r1	; 0x1c
    1298:	8e 8d       	ldd	r24, Y+30	; 0x1e
    129a:	8e 7f       	andi	r24, 0xFE	; 254
    129c:	20 fb       	bst	r18, 0
    129e:	81 f9       	bld	r24, 1
    12a0:	8e 8f       	std	Y+30, r24	; 0x1e
    12a2:	64 2f       	mov	r22, r20
    12a4:	ce 01       	movw	r24, r28
    12a6:	0e 94 df 08 	call	0x11be	; 0x11be <_ZN14SoftwareSerial5setTXEh>
    12aa:	61 2f       	mov	r22, r17
    12ac:	ce 01       	movw	r24, r28
    12ae:	df 91       	pop	r29
    12b0:	cf 91       	pop	r28
    12b2:	1f 91       	pop	r17
    12b4:	0c 94 08 09 	jmp	0x1210	; 0x1210 <_ZN14SoftwareSerial5setRXEh>

000012b8 <_ZN14SoftwareSerial5beginEl>:
//
// Public methods
//

void SoftwareSerial::begin(long speed)
{
    12b8:	cf 93       	push	r28
    12ba:	df 93       	push	r29
    12bc:	ec 01       	movw	r28, r24
    12be:	9a 01       	movw	r18, r20
    12c0:	ab 01       	movw	r20, r22
  _rx_delay_centering = _rx_delay_intrabit = _rx_delay_stopbit = _tx_delay = 0;
    12c2:	1b 8e       	std	Y+27, r1	; 0x1b
    12c4:	1a 8e       	std	Y+26, r1	; 0x1a
    12c6:	19 8e       	std	Y+25, r1	; 0x19
    12c8:	18 8e       	std	Y+24, r1	; 0x18
    12ca:	1f 8a       	std	Y+23, r1	; 0x17
    12cc:	1e 8a       	std	Y+22, r1	; 0x16

  // Precalculate the various delays, in number of 4-cycle delays
  uint16_t bit_delay = (F_CPU / speed) / 4;
    12ce:	60 e0       	ldi	r22, 0x00	; 0
    12d0:	79 e0       	ldi	r23, 0x09	; 9
    12d2:	8d e3       	ldi	r24, 0x3D	; 61
    12d4:	90 e0       	ldi	r25, 0x00	; 0
    12d6:	0e 94 ce 0b 	call	0x179c	; 0x179c <__divmodsi4>
    12da:	f9 01       	movw	r30, r18
  uint8_t port = digitalPinToPort(rx);
  _receivePortRegister = portInputRegister(port);
}

uint16_t SoftwareSerial::subtract_cap(uint16_t num, uint16_t sub) {
  if (num > sub)
    12dc:	24 30       	cpi	r18, 0x04	; 4
    12de:	31 05       	cpc	r19, r1
    12e0:	18 f0       	brcs	.+6      	; 0x12e8 <_ZN14SoftwareSerial5beginEl+0x30>
    return num - sub;
    12e2:	c9 01       	movw	r24, r18
    12e4:	03 97       	sbiw	r24, 0x03	; 3
    12e6:	02 c0       	rjmp	.+4      	; 0x12ec <_ZN14SoftwareSerial5beginEl+0x34>
  else
    return 1;
    12e8:	81 e0       	ldi	r24, 0x01	; 1
    12ea:	90 e0       	ldi	r25, 0x00	; 0
  // 12 (gcc 4.8.2) or 13 (gcc 4.3.2) cycles from start bit to first bit,
  // 15 (gcc 4.8.2) or 16 (gcc 4.3.2) cycles between bits,
  // 12 (gcc 4.8.2) or 14 (gcc 4.3.2) cycles from last bit to stop bit
  // These are all close enough to just use 15 cycles, since the inter-bit
  // timings are the most critical (deviations stack 8 times)
  _tx_delay = subtract_cap(bit_delay, 15 / 4);
    12ec:	9d 8f       	std	Y+29, r25	; 0x1d
    12ee:	8c 8f       	std	Y+28, r24	; 0x1c

  // Only setup rx when we have a valid PCINT for this pin
  if (digitalPinToPCICR(_receivePin)) {
    12f0:	6c 85       	ldd	r22, Y+12	; 0x0c
    12f2:	66 31       	cpi	r22, 0x16	; 22
    12f4:	08 f0       	brcs	.+2      	; 0x12f8 <_ZN14SoftwareSerial5beginEl+0x40>
    12f6:	69 c0       	rjmp	.+210    	; 0x13ca <_ZN14SoftwareSerial5beginEl+0x112>
    // are 17 more cycles until the pin value is read (excluding the
    // delay in the loop).
    // We want to have a total delay of 1.5 bit time. Inside the loop,
    // we already wait for 1 bit time - 23 cycles, so here we wait for
    // 0.5 bit time - (71 + 18 - 22) cycles.
    _rx_delay_centering = subtract_cap(bit_delay / 2, (4 + 4 + 75 + 17 - 23) / 4);
    12f8:	c9 01       	movw	r24, r18
    12fa:	96 95       	lsr	r25
    12fc:	87 95       	ror	r24
  uint8_t port = digitalPinToPort(rx);
  _receivePortRegister = portInputRegister(port);
}

uint16_t SoftwareSerial::subtract_cap(uint16_t num, uint16_t sub) {
  if (num > sub)
    12fe:	84 31       	cpi	r24, 0x14	; 20
    1300:	91 05       	cpc	r25, r1
    1302:	10 f0       	brcs	.+4      	; 0x1308 <_ZN14SoftwareSerial5beginEl+0x50>
    return num - sub;
    1304:	43 97       	sbiw	r24, 0x13	; 19
    1306:	02 c0       	rjmp	.+4      	; 0x130c <_ZN14SoftwareSerial5beginEl+0x54>
  else
    return 1;
    1308:	81 e0       	ldi	r24, 0x01	; 1
    130a:	90 e0       	ldi	r25, 0x00	; 0
    // are 17 more cycles until the pin value is read (excluding the
    // delay in the loop).
    // We want to have a total delay of 1.5 bit time. Inside the loop,
    // we already wait for 1 bit time - 23 cycles, so here we wait for
    // 0.5 bit time - (71 + 18 - 22) cycles.
    _rx_delay_centering = subtract_cap(bit_delay / 2, (4 + 4 + 75 + 17 - 23) / 4);
    130c:	9f 8b       	std	Y+23, r25	; 0x17
    130e:	8e 8b       	std	Y+22, r24	; 0x16
  uint8_t port = digitalPinToPort(rx);
  _receivePortRegister = portInputRegister(port);
}

uint16_t SoftwareSerial::subtract_cap(uint16_t num, uint16_t sub) {
  if (num > sub)
    1310:	36 97       	sbiw	r30, 0x06	; 6
    1312:	18 f0       	brcs	.+6      	; 0x131a <_ZN14SoftwareSerial5beginEl+0x62>
    return num - sub;
    1314:	c9 01       	movw	r24, r18
    1316:	05 97       	sbiw	r24, 0x05	; 5
    1318:	02 c0       	rjmp	.+4      	; 0x131e <_ZN14SoftwareSerial5beginEl+0x66>
  else
    return 1;
    131a:	81 e0       	ldi	r24, 0x01	; 1
    131c:	90 e0       	ldi	r25, 0x00	; 0
    // we already wait for 1 bit time - 23 cycles, so here we wait for
    // 0.5 bit time - (71 + 18 - 22) cycles.
    _rx_delay_centering = subtract_cap(bit_delay / 2, (4 + 4 + 75 + 17 - 23) / 4);

    // There are 23 cycles in each loop iteration (excluding the delay)
    _rx_delay_intrabit = subtract_cap(bit_delay, 23 / 4);
    131e:	99 8f       	std	Y+25, r25	; 0x19
    1320:	88 8f       	std	Y+24, r24	; 0x18
    // mask is enabled again (which _must_ happen during the stopbit).
    // This delay aims at 3/4 of a bit time, meaning the end of the
    // delay will be at 1/4th of the stopbit. This allows some extra
    // time for ISR cleanup, which makes 115200 baud at 16Mhz work more
    // reliably
    _rx_delay_stopbit = subtract_cap(bit_delay * 3 / 4, (37 + 11) / 4);
    1322:	c9 01       	movw	r24, r18
    1324:	88 0f       	add	r24, r24
    1326:	99 1f       	adc	r25, r25
    1328:	28 0f       	add	r18, r24
    132a:	39 1f       	adc	r19, r25
    132c:	36 95       	lsr	r19
    132e:	27 95       	ror	r18
    1330:	36 95       	lsr	r19
    1332:	27 95       	ror	r18
  uint8_t port = digitalPinToPort(rx);
  _receivePortRegister = portInputRegister(port);
}

uint16_t SoftwareSerial::subtract_cap(uint16_t num, uint16_t sub) {
  if (num > sub)
    1334:	2d 30       	cpi	r18, 0x0D	; 13
    1336:	31 05       	cpc	r19, r1
    1338:	18 f0       	brcs	.+6      	; 0x1340 <_ZN14SoftwareSerial5beginEl+0x88>
    return num - sub;
    133a:	2c 50       	subi	r18, 0x0C	; 12
    133c:	31 09       	sbc	r19, r1
    133e:	02 c0       	rjmp	.+4      	; 0x1344 <_ZN14SoftwareSerial5beginEl+0x8c>
  else
    return 1;
    1340:	21 e0       	ldi	r18, 0x01	; 1
    1342:	30 e0       	ldi	r19, 0x00	; 0
    // mask is enabled again (which _must_ happen during the stopbit).
    // This delay aims at 3/4 of a bit time, meaning the end of the
    // delay will be at 1/4th of the stopbit. This allows some extra
    // time for ISR cleanup, which makes 115200 baud at 16Mhz work more
    // reliably
    _rx_delay_stopbit = subtract_cap(bit_delay * 3 / 4, (37 + 11) / 4);
    1344:	3b 8f       	std	Y+27, r19	; 0x1b
    1346:	2a 8f       	std	Y+26, r18	; 0x1a


    // Enable the PCINT for the entire port here, but never disable it
    // (others might also need it, so we disable the interrupt by using
    // the per-pin PCMSK register).
    *digitalPinToPCICR(_receivePin) |= _BV(digitalPinToPCICRbit(_receivePin));
    1348:	90 91 68 00 	lds	r25, 0x0068
    134c:	68 30       	cpi	r22, 0x08	; 8
    134e:	50 f0       	brcs	.+20     	; 0x1364 <_ZN14SoftwareSerial5beginEl+0xac>
    1350:	21 e0       	ldi	r18, 0x01	; 1
    1352:	6e 30       	cpi	r22, 0x0E	; 14
    1354:	08 f4       	brcc	.+2      	; 0x1358 <_ZN14SoftwareSerial5beginEl+0xa0>
    1356:	20 e0       	ldi	r18, 0x00	; 0
    1358:	81 e0       	ldi	r24, 0x01	; 1
    135a:	01 c0       	rjmp	.+2      	; 0x135e <_ZN14SoftwareSerial5beginEl+0xa6>
    135c:	88 0f       	add	r24, r24
    135e:	2a 95       	dec	r18
    1360:	ea f7       	brpl	.-6      	; 0x135c <_ZN14SoftwareSerial5beginEl+0xa4>
    1362:	01 c0       	rjmp	.+2      	; 0x1366 <_ZN14SoftwareSerial5beginEl+0xae>
    1364:	84 e0       	ldi	r24, 0x04	; 4
    1366:	89 2b       	or	r24, r25
    1368:	80 93 68 00 	sts	0x0068, r24
    // Precalculate the pcint mask register and value, so setRxIntMask
    // can be used inside the ISR without costing too much time.
    _pcint_maskreg = digitalPinToPCMSK(_receivePin);
    136c:	8c 85       	ldd	r24, Y+12	; 0x0c
    136e:	88 30       	cpi	r24, 0x08	; 8
    1370:	38 f0       	brcs	.+14     	; 0x1380 <_ZN14SoftwareSerial5beginEl+0xc8>
    1372:	8e 30       	cpi	r24, 0x0E	; 14
    1374:	40 f0       	brcs	.+16     	; 0x1386 <_ZN14SoftwareSerial5beginEl+0xce>
    1376:	86 31       	cpi	r24, 0x16	; 22
    1378:	48 f0       	brcs	.+18     	; 0x138c <_ZN14SoftwareSerial5beginEl+0xd4>
    137a:	20 e0       	ldi	r18, 0x00	; 0
    137c:	30 e0       	ldi	r19, 0x00	; 0
    137e:	08 c0       	rjmp	.+16     	; 0x1390 <_ZN14SoftwareSerial5beginEl+0xd8>
    1380:	2d e6       	ldi	r18, 0x6D	; 109
    1382:	30 e0       	ldi	r19, 0x00	; 0
    1384:	05 c0       	rjmp	.+10     	; 0x1390 <_ZN14SoftwareSerial5beginEl+0xd8>
    1386:	2b e6       	ldi	r18, 0x6B	; 107
    1388:	30 e0       	ldi	r19, 0x00	; 0
    138a:	02 c0       	rjmp	.+4      	; 0x1390 <_ZN14SoftwareSerial5beginEl+0xd8>
    138c:	2c e6       	ldi	r18, 0x6C	; 108
    138e:	30 e0       	ldi	r19, 0x00	; 0
    1390:	3c 8b       	std	Y+20, r19	; 0x14
    1392:	2b 8b       	std	Y+19, r18	; 0x13
    _pcint_maskvalue = _BV(digitalPinToPCMSKbit(_receivePin));
    1394:	88 30       	cpi	r24, 0x08	; 8
    1396:	30 f4       	brcc	.+12     	; 0x13a4 <_ZN14SoftwareSerial5beginEl+0xec>
    1398:	91 e0       	ldi	r25, 0x01	; 1
    139a:	01 c0       	rjmp	.+2      	; 0x139e <_ZN14SoftwareSerial5beginEl+0xe6>
    139c:	99 0f       	add	r25, r25
    139e:	8a 95       	dec	r24
    13a0:	ea f7       	brpl	.-6      	; 0x139c <_ZN14SoftwareSerial5beginEl+0xe4>
    13a2:	0e c0       	rjmp	.+28     	; 0x13c0 <_ZN14SoftwareSerial5beginEl+0x108>
    13a4:	28 2f       	mov	r18, r24
    13a6:	30 e0       	ldi	r19, 0x00	; 0
    13a8:	8e 30       	cpi	r24, 0x0E	; 14
    13aa:	18 f4       	brcc	.+6      	; 0x13b2 <_ZN14SoftwareSerial5beginEl+0xfa>
    13ac:	28 50       	subi	r18, 0x08	; 8
    13ae:	31 09       	sbc	r19, r1
    13b0:	02 c0       	rjmp	.+4      	; 0x13b6 <_ZN14SoftwareSerial5beginEl+0xfe>
    13b2:	2e 50       	subi	r18, 0x0E	; 14
    13b4:	31 09       	sbc	r19, r1
    13b6:	91 e0       	ldi	r25, 0x01	; 1
    13b8:	01 c0       	rjmp	.+2      	; 0x13bc <_ZN14SoftwareSerial5beginEl+0x104>
    13ba:	99 0f       	add	r25, r25
    13bc:	2a 95       	dec	r18
    13be:	ea f7       	brpl	.-6      	; 0x13ba <_ZN14SoftwareSerial5beginEl+0x102>
    13c0:	9d 8b       	std	Y+21, r25	; 0x15
	__asm__ volatile (
		"1: sbiw %0,1" "\n\t"
		"brne 1b"
		: "=w" (__count)
		: "0" (__count)
	);
    13c2:	8c 8d       	ldd	r24, Y+28	; 0x1c
    13c4:	9d 8d       	ldd	r25, Y+29	; 0x1d
    13c6:	01 97       	sbiw	r24, 0x01	; 1
    13c8:	f1 f7       	brne	.-4      	; 0x13c6 <_ZN14SoftwareSerial5beginEl+0x10e>
#if _DEBUG
  pinMode(_DEBUG_PIN1, OUTPUT);
  pinMode(_DEBUG_PIN2, OUTPUT);
#endif

  listen();
    13ca:	ce 01       	movw	r24, r28
}
    13cc:	df 91       	pop	r29
    13ce:	cf 91       	pop	r28
#if _DEBUG
  pinMode(_DEBUG_PIN1, OUTPUT);
  pinMode(_DEBUG_PIN2, OUTPUT);
#endif

  listen();
    13d0:	0c 94 35 08 	jmp	0x106a	; 0x106a <_ZN14SoftwareSerial6listenEv>

000013d4 <pinMode>:
    13d4:	cf 93       	push	r28
    13d6:	df 93       	push	r29
    13d8:	cd b7       	in	r28, 0x3d	; 61
    13da:	de b7       	in	r29, 0x3e	; 62
    13dc:	69 97       	sbiw	r28, 0x19	; 25
    13de:	0f b6       	in	r0, 0x3f	; 63
    13e0:	f8 94       	cli
    13e2:	de bf       	out	0x3e, r29	; 62
    13e4:	0f be       	out	0x3f, r0	; 63
    13e6:	cd bf       	out	0x3d, r28	; 61
    13e8:	88 8f       	std	Y+24, r24	; 0x18
    13ea:	69 8f       	std	Y+25, r22	; 0x19
    13ec:	88 8d       	ldd	r24, Y+24	; 0x18
    13ee:	88 2f       	mov	r24, r24
    13f0:	90 e0       	ldi	r25, 0x00	; 0
    13f2:	86 56       	subi	r24, 0x66	; 102
    13f4:	9f 4f       	sbci	r25, 0xFF	; 255
    13f6:	9a 83       	std	Y+2, r25	; 0x02
    13f8:	89 83       	std	Y+1, r24	; 0x01
    13fa:	89 81       	ldd	r24, Y+1	; 0x01
    13fc:	9a 81       	ldd	r25, Y+2	; 0x02
    13fe:	fc 01       	movw	r30, r24
    1400:	84 91       	lpm	r24, Z
    1402:	8b 83       	std	Y+3, r24	; 0x03
    1404:	8b 81       	ldd	r24, Y+3	; 0x03
    1406:	8c 83       	std	Y+4, r24	; 0x04
    1408:	88 8d       	ldd	r24, Y+24	; 0x18
    140a:	88 2f       	mov	r24, r24
    140c:	90 e0       	ldi	r25, 0x00	; 0
    140e:	8a 57       	subi	r24, 0x7A	; 122
    1410:	9f 4f       	sbci	r25, 0xFF	; 255
    1412:	9e 83       	std	Y+6, r25	; 0x06
    1414:	8d 83       	std	Y+5, r24	; 0x05
    1416:	8d 81       	ldd	r24, Y+5	; 0x05
    1418:	9e 81       	ldd	r25, Y+6	; 0x06
    141a:	fc 01       	movw	r30, r24
    141c:	84 91       	lpm	r24, Z
    141e:	8f 83       	std	Y+7, r24	; 0x07
    1420:	8f 81       	ldd	r24, Y+7	; 0x07
    1422:	88 87       	std	Y+8, r24	; 0x08
    1424:	88 85       	ldd	r24, Y+8	; 0x08
    1426:	88 23       	and	r24, r24
    1428:	09 f4       	brne	.+2      	; 0x142c <pinMode+0x58>
    142a:	94 c0       	rjmp	.+296    	; 0x1554 <pinMode+0x180>
    142c:	88 85       	ldd	r24, Y+8	; 0x08
    142e:	88 2f       	mov	r24, r24
    1430:	90 e0       	ldi	r25, 0x00	; 0
    1432:	88 0f       	add	r24, r24
    1434:	99 1f       	adc	r25, r25
    1436:	88 59       	subi	r24, 0x98	; 152
    1438:	9f 4f       	sbci	r25, 0xFF	; 255
    143a:	9a 87       	std	Y+10, r25	; 0x0a
    143c:	89 87       	std	Y+9, r24	; 0x09
    143e:	89 85       	ldd	r24, Y+9	; 0x09
    1440:	9a 85       	ldd	r25, Y+10	; 0x0a
    1442:	fc 01       	movw	r30, r24
    1444:	25 91       	lpm	r18, Z+
    1446:	34 91       	lpm	r19, Z
    1448:	cf 01       	movw	r24, r30
    144a:	3c 87       	std	Y+12, r19	; 0x0c
    144c:	2b 87       	std	Y+11, r18	; 0x0b
    144e:	9a 87       	std	Y+10, r25	; 0x0a
    1450:	89 87       	std	Y+9, r24	; 0x09
    1452:	8b 85       	ldd	r24, Y+11	; 0x0b
    1454:	9c 85       	ldd	r25, Y+12	; 0x0c
    1456:	9e 87       	std	Y+14, r25	; 0x0e
    1458:	8d 87       	std	Y+13, r24	; 0x0d
    145a:	88 85       	ldd	r24, Y+8	; 0x08
    145c:	88 2f       	mov	r24, r24
    145e:	90 e0       	ldi	r25, 0x00	; 0
    1460:	88 0f       	add	r24, r24
    1462:	99 1f       	adc	r25, r25
    1464:	8e 58       	subi	r24, 0x8E	; 142
    1466:	9f 4f       	sbci	r25, 0xFF	; 255
    1468:	98 8b       	std	Y+16, r25	; 0x10
    146a:	8f 87       	std	Y+15, r24	; 0x0f
    146c:	8f 85       	ldd	r24, Y+15	; 0x0f
    146e:	98 89       	ldd	r25, Y+16	; 0x10
    1470:	fc 01       	movw	r30, r24
    1472:	25 91       	lpm	r18, Z+
    1474:	34 91       	lpm	r19, Z
    1476:	cf 01       	movw	r24, r30
    1478:	3a 8b       	std	Y+18, r19	; 0x12
    147a:	29 8b       	std	Y+17, r18	; 0x11
    147c:	98 8b       	std	Y+16, r25	; 0x10
    147e:	8f 87       	std	Y+15, r24	; 0x0f
    1480:	89 89       	ldd	r24, Y+17	; 0x11
    1482:	9a 89       	ldd	r25, Y+18	; 0x12
    1484:	9c 8b       	std	Y+20, r25	; 0x14
    1486:	8b 8b       	std	Y+19, r24	; 0x13
    1488:	89 8d       	ldd	r24, Y+25	; 0x19
    148a:	88 23       	and	r24, r24
    148c:	31 f5       	brne	.+76     	; 0x14da <pinMode+0x106>
    148e:	8f e5       	ldi	r24, 0x5F	; 95
    1490:	90 e0       	ldi	r25, 0x00	; 0
    1492:	fc 01       	movw	r30, r24
    1494:	80 81       	ld	r24, Z
    1496:	8d 8b       	std	Y+21, r24	; 0x15
    1498:	f8 94       	cli
    149a:	8d 85       	ldd	r24, Y+13	; 0x0d
    149c:	9e 85       	ldd	r25, Y+14	; 0x0e
    149e:	fc 01       	movw	r30, r24
    14a0:	80 81       	ld	r24, Z
    14a2:	98 2f       	mov	r25, r24
    14a4:	8c 81       	ldd	r24, Y+4	; 0x04
    14a6:	80 95       	com	r24
    14a8:	89 23       	and	r24, r25
    14aa:	28 2f       	mov	r18, r24
    14ac:	8d 85       	ldd	r24, Y+13	; 0x0d
    14ae:	9e 85       	ldd	r25, Y+14	; 0x0e
    14b0:	fc 01       	movw	r30, r24
    14b2:	20 83       	st	Z, r18
    14b4:	8b 89       	ldd	r24, Y+19	; 0x13
    14b6:	9c 89       	ldd	r25, Y+20	; 0x14
    14b8:	fc 01       	movw	r30, r24
    14ba:	80 81       	ld	r24, Z
    14bc:	98 2f       	mov	r25, r24
    14be:	8c 81       	ldd	r24, Y+4	; 0x04
    14c0:	80 95       	com	r24
    14c2:	89 23       	and	r24, r25
    14c4:	28 2f       	mov	r18, r24
    14c6:	8b 89       	ldd	r24, Y+19	; 0x13
    14c8:	9c 89       	ldd	r25, Y+20	; 0x14
    14ca:	fc 01       	movw	r30, r24
    14cc:	20 83       	st	Z, r18
    14ce:	8f e5       	ldi	r24, 0x5F	; 95
    14d0:	90 e0       	ldi	r25, 0x00	; 0
    14d2:	2d 89       	ldd	r18, Y+21	; 0x15
    14d4:	fc 01       	movw	r30, r24
    14d6:	20 83       	st	Z, r18
    14d8:	3d c0       	rjmp	.+122    	; 0x1554 <pinMode+0x180>
    14da:	89 8d       	ldd	r24, Y+25	; 0x19
    14dc:	82 30       	cpi	r24, 0x02	; 2
    14de:	21 f5       	brne	.+72     	; 0x1528 <pinMode+0x154>
    14e0:	8f e5       	ldi	r24, 0x5F	; 95
    14e2:	90 e0       	ldi	r25, 0x00	; 0
    14e4:	fc 01       	movw	r30, r24
    14e6:	80 81       	ld	r24, Z
    14e8:	8e 8b       	std	Y+22, r24	; 0x16
    14ea:	f8 94       	cli
    14ec:	8d 85       	ldd	r24, Y+13	; 0x0d
    14ee:	9e 85       	ldd	r25, Y+14	; 0x0e
    14f0:	fc 01       	movw	r30, r24
    14f2:	80 81       	ld	r24, Z
    14f4:	98 2f       	mov	r25, r24
    14f6:	8c 81       	ldd	r24, Y+4	; 0x04
    14f8:	80 95       	com	r24
    14fa:	89 23       	and	r24, r25
    14fc:	28 2f       	mov	r18, r24
    14fe:	8d 85       	ldd	r24, Y+13	; 0x0d
    1500:	9e 85       	ldd	r25, Y+14	; 0x0e
    1502:	fc 01       	movw	r30, r24
    1504:	20 83       	st	Z, r18
    1506:	8b 89       	ldd	r24, Y+19	; 0x13
    1508:	9c 89       	ldd	r25, Y+20	; 0x14
    150a:	fc 01       	movw	r30, r24
    150c:	90 81       	ld	r25, Z
    150e:	8c 81       	ldd	r24, Y+4	; 0x04
    1510:	29 2f       	mov	r18, r25
    1512:	28 2b       	or	r18, r24
    1514:	8b 89       	ldd	r24, Y+19	; 0x13
    1516:	9c 89       	ldd	r25, Y+20	; 0x14
    1518:	fc 01       	movw	r30, r24
    151a:	20 83       	st	Z, r18
    151c:	8f e5       	ldi	r24, 0x5F	; 95
    151e:	90 e0       	ldi	r25, 0x00	; 0
    1520:	2e 89       	ldd	r18, Y+22	; 0x16
    1522:	fc 01       	movw	r30, r24
    1524:	20 83       	st	Z, r18
    1526:	16 c0       	rjmp	.+44     	; 0x1554 <pinMode+0x180>
    1528:	8f e5       	ldi	r24, 0x5F	; 95
    152a:	90 e0       	ldi	r25, 0x00	; 0
    152c:	fc 01       	movw	r30, r24
    152e:	80 81       	ld	r24, Z
    1530:	8f 8b       	std	Y+23, r24	; 0x17
    1532:	f8 94       	cli
    1534:	8d 85       	ldd	r24, Y+13	; 0x0d
    1536:	9e 85       	ldd	r25, Y+14	; 0x0e
    1538:	fc 01       	movw	r30, r24
    153a:	90 81       	ld	r25, Z
    153c:	8c 81       	ldd	r24, Y+4	; 0x04
    153e:	29 2f       	mov	r18, r25
    1540:	28 2b       	or	r18, r24
    1542:	8d 85       	ldd	r24, Y+13	; 0x0d
    1544:	9e 85       	ldd	r25, Y+14	; 0x0e
    1546:	fc 01       	movw	r30, r24
    1548:	20 83       	st	Z, r18
    154a:	8f e5       	ldi	r24, 0x5F	; 95
    154c:	90 e0       	ldi	r25, 0x00	; 0
    154e:	2f 89       	ldd	r18, Y+23	; 0x17
    1550:	fc 01       	movw	r30, r24
    1552:	20 83       	st	Z, r18
    1554:	69 96       	adiw	r28, 0x19	; 25
    1556:	0f b6       	in	r0, 0x3f	; 63
    1558:	f8 94       	cli
    155a:	de bf       	out	0x3e, r29	; 62
    155c:	0f be       	out	0x3f, r0	; 63
    155e:	cd bf       	out	0x3d, r28	; 61
    1560:	df 91       	pop	r29
    1562:	cf 91       	pop	r28
    1564:	08 95       	ret

00001566 <turnOffPWM>:
    1566:	cf 93       	push	r28
    1568:	df 93       	push	r29
    156a:	1f 92       	push	r1
    156c:	cd b7       	in	r28, 0x3d	; 61
    156e:	de b7       	in	r29, 0x3e	; 62
    1570:	89 83       	std	Y+1, r24	; 0x01
    1572:	89 81       	ldd	r24, Y+1	; 0x01
    1574:	88 2f       	mov	r24, r24
    1576:	90 e0       	ldi	r25, 0x00	; 0
    1578:	83 30       	cpi	r24, 0x03	; 3
    157a:	91 05       	cpc	r25, r1
    157c:	91 f0       	breq	.+36     	; 0x15a2 <turnOffPWM+0x3c>
    157e:	84 30       	cpi	r24, 0x04	; 4
    1580:	91 05       	cpc	r25, r1
    1582:	34 f4       	brge	.+12     	; 0x1590 <turnOffPWM+0x2a>
    1584:	81 30       	cpi	r24, 0x01	; 1
    1586:	91 05       	cpc	r25, r1
    1588:	01 f1       	breq	.+64     	; 0x15ca <turnOffPWM+0x64>
    158a:	02 97       	sbiw	r24, 0x02	; 2
    158c:	41 f1       	breq	.+80     	; 0x15de <turnOffPWM+0x78>
    158e:	45 c0       	rjmp	.+138    	; 0x161a <turnOffPWM+0xb4>
    1590:	87 30       	cpi	r24, 0x07	; 7
    1592:	91 05       	cpc	r25, r1
    1594:	71 f1       	breq	.+92     	; 0x15f2 <turnOffPWM+0x8c>
    1596:	88 30       	cpi	r24, 0x08	; 8
    1598:	91 05       	cpc	r25, r1
    159a:	a9 f1       	breq	.+106    	; 0x1606 <turnOffPWM+0xa0>
    159c:	04 97       	sbiw	r24, 0x04	; 4
    159e:	59 f0       	breq	.+22     	; 0x15b6 <turnOffPWM+0x50>
    15a0:	3c c0       	rjmp	.+120    	; 0x161a <turnOffPWM+0xb4>
    15a2:	80 e8       	ldi	r24, 0x80	; 128
    15a4:	90 e0       	ldi	r25, 0x00	; 0
    15a6:	20 e8       	ldi	r18, 0x80	; 128
    15a8:	30 e0       	ldi	r19, 0x00	; 0
    15aa:	f9 01       	movw	r30, r18
    15ac:	20 81       	ld	r18, Z
    15ae:	2f 77       	andi	r18, 0x7F	; 127
    15b0:	fc 01       	movw	r30, r24
    15b2:	20 83       	st	Z, r18
    15b4:	32 c0       	rjmp	.+100    	; 0x161a <turnOffPWM+0xb4>
    15b6:	80 e8       	ldi	r24, 0x80	; 128
    15b8:	90 e0       	ldi	r25, 0x00	; 0
    15ba:	20 e8       	ldi	r18, 0x80	; 128
    15bc:	30 e0       	ldi	r19, 0x00	; 0
    15be:	f9 01       	movw	r30, r18
    15c0:	20 81       	ld	r18, Z
    15c2:	2f 7d       	andi	r18, 0xDF	; 223
    15c4:	fc 01       	movw	r30, r24
    15c6:	20 83       	st	Z, r18
    15c8:	28 c0       	rjmp	.+80     	; 0x161a <turnOffPWM+0xb4>
    15ca:	84 e4       	ldi	r24, 0x44	; 68
    15cc:	90 e0       	ldi	r25, 0x00	; 0
    15ce:	24 e4       	ldi	r18, 0x44	; 68
    15d0:	30 e0       	ldi	r19, 0x00	; 0
    15d2:	f9 01       	movw	r30, r18
    15d4:	20 81       	ld	r18, Z
    15d6:	2f 77       	andi	r18, 0x7F	; 127
    15d8:	fc 01       	movw	r30, r24
    15da:	20 83       	st	Z, r18
    15dc:	1e c0       	rjmp	.+60     	; 0x161a <turnOffPWM+0xb4>
    15de:	84 e4       	ldi	r24, 0x44	; 68
    15e0:	90 e0       	ldi	r25, 0x00	; 0
    15e2:	24 e4       	ldi	r18, 0x44	; 68
    15e4:	30 e0       	ldi	r19, 0x00	; 0
    15e6:	f9 01       	movw	r30, r18
    15e8:	20 81       	ld	r18, Z
    15ea:	2f 7d       	andi	r18, 0xDF	; 223
    15ec:	fc 01       	movw	r30, r24
    15ee:	20 83       	st	Z, r18
    15f0:	14 c0       	rjmp	.+40     	; 0x161a <turnOffPWM+0xb4>
    15f2:	80 eb       	ldi	r24, 0xB0	; 176
    15f4:	90 e0       	ldi	r25, 0x00	; 0
    15f6:	20 eb       	ldi	r18, 0xB0	; 176
    15f8:	30 e0       	ldi	r19, 0x00	; 0
    15fa:	f9 01       	movw	r30, r18
    15fc:	20 81       	ld	r18, Z
    15fe:	2f 77       	andi	r18, 0x7F	; 127
    1600:	fc 01       	movw	r30, r24
    1602:	20 83       	st	Z, r18
    1604:	0a c0       	rjmp	.+20     	; 0x161a <turnOffPWM+0xb4>
    1606:	80 eb       	ldi	r24, 0xB0	; 176
    1608:	90 e0       	ldi	r25, 0x00	; 0
    160a:	20 eb       	ldi	r18, 0xB0	; 176
    160c:	30 e0       	ldi	r19, 0x00	; 0
    160e:	f9 01       	movw	r30, r18
    1610:	20 81       	ld	r18, Z
    1612:	2f 7d       	andi	r18, 0xDF	; 223
    1614:	fc 01       	movw	r30, r24
    1616:	20 83       	st	Z, r18
    1618:	00 00       	nop
    161a:	0f 90       	pop	r0
    161c:	df 91       	pop	r29
    161e:	cf 91       	pop	r28
    1620:	08 95       	ret

00001622 <digitalWrite>:
    1622:	cf 93       	push	r28
    1624:	df 93       	push	r29
    1626:	cd b7       	in	r28, 0x3d	; 61
    1628:	de b7       	in	r29, 0x3e	; 62
    162a:	65 97       	sbiw	r28, 0x15	; 21
    162c:	0f b6       	in	r0, 0x3f	; 63
    162e:	f8 94       	cli
    1630:	de bf       	out	0x3e, r29	; 62
    1632:	0f be       	out	0x3f, r0	; 63
    1634:	cd bf       	out	0x3d, r28	; 61
    1636:	8c 8b       	std	Y+20, r24	; 0x14
    1638:	6d 8b       	std	Y+21, r22	; 0x15
    163a:	8c 89       	ldd	r24, Y+20	; 0x14
    163c:	88 2f       	mov	r24, r24
    163e:	90 e0       	ldi	r25, 0x00	; 0
    1640:	82 55       	subi	r24, 0x52	; 82
    1642:	9f 4f       	sbci	r25, 0xFF	; 255
    1644:	9a 83       	std	Y+2, r25	; 0x02
    1646:	89 83       	std	Y+1, r24	; 0x01
    1648:	89 81       	ldd	r24, Y+1	; 0x01
    164a:	9a 81       	ldd	r25, Y+2	; 0x02
    164c:	fc 01       	movw	r30, r24
    164e:	84 91       	lpm	r24, Z
    1650:	8b 83       	std	Y+3, r24	; 0x03
    1652:	8b 81       	ldd	r24, Y+3	; 0x03
    1654:	8c 83       	std	Y+4, r24	; 0x04
    1656:	8c 89       	ldd	r24, Y+20	; 0x14
    1658:	88 2f       	mov	r24, r24
    165a:	90 e0       	ldi	r25, 0x00	; 0
    165c:	86 56       	subi	r24, 0x66	; 102
    165e:	9f 4f       	sbci	r25, 0xFF	; 255
    1660:	9e 83       	std	Y+6, r25	; 0x06
    1662:	8d 83       	std	Y+5, r24	; 0x05
    1664:	8d 81       	ldd	r24, Y+5	; 0x05
    1666:	9e 81       	ldd	r25, Y+6	; 0x06
    1668:	fc 01       	movw	r30, r24
    166a:	84 91       	lpm	r24, Z
    166c:	8f 83       	std	Y+7, r24	; 0x07
    166e:	8f 81       	ldd	r24, Y+7	; 0x07
    1670:	88 87       	std	Y+8, r24	; 0x08
    1672:	8c 89       	ldd	r24, Y+20	; 0x14
    1674:	88 2f       	mov	r24, r24
    1676:	90 e0       	ldi	r25, 0x00	; 0
    1678:	8a 57       	subi	r24, 0x7A	; 122
    167a:	9f 4f       	sbci	r25, 0xFF	; 255
    167c:	9a 87       	std	Y+10, r25	; 0x0a
    167e:	89 87       	std	Y+9, r24	; 0x09
    1680:	89 85       	ldd	r24, Y+9	; 0x09
    1682:	9a 85       	ldd	r25, Y+10	; 0x0a
    1684:	fc 01       	movw	r30, r24
    1686:	84 91       	lpm	r24, Z
    1688:	8b 87       	std	Y+11, r24	; 0x0b
    168a:	8b 85       	ldd	r24, Y+11	; 0x0b
    168c:	8c 87       	std	Y+12, r24	; 0x0c
    168e:	8c 85       	ldd	r24, Y+12	; 0x0c
    1690:	88 23       	and	r24, r24
    1692:	09 f4       	brne	.+2      	; 0x1696 <digitalWrite+0x74>
    1694:	44 c0       	rjmp	.+136    	; 0x171e <digitalWrite+0xfc>
    1696:	8c 81       	ldd	r24, Y+4	; 0x04
    1698:	88 23       	and	r24, r24
    169a:	19 f0       	breq	.+6      	; 0x16a2 <digitalWrite+0x80>
    169c:	8c 81       	ldd	r24, Y+4	; 0x04
    169e:	0e 94 b3 0a 	call	0x1566	; 0x1566 <turnOffPWM>
    16a2:	8c 85       	ldd	r24, Y+12	; 0x0c
    16a4:	88 2f       	mov	r24, r24
    16a6:	90 e0       	ldi	r25, 0x00	; 0
    16a8:	88 0f       	add	r24, r24
    16aa:	99 1f       	adc	r25, r25
    16ac:	8e 58       	subi	r24, 0x8E	; 142
    16ae:	9f 4f       	sbci	r25, 0xFF	; 255
    16b0:	9e 87       	std	Y+14, r25	; 0x0e
    16b2:	8d 87       	std	Y+13, r24	; 0x0d
    16b4:	8d 85       	ldd	r24, Y+13	; 0x0d
    16b6:	9e 85       	ldd	r25, Y+14	; 0x0e
    16b8:	fc 01       	movw	r30, r24
    16ba:	25 91       	lpm	r18, Z+
    16bc:	34 91       	lpm	r19, Z
    16be:	cf 01       	movw	r24, r30
    16c0:	38 8b       	std	Y+16, r19	; 0x10
    16c2:	2f 87       	std	Y+15, r18	; 0x0f
    16c4:	9e 87       	std	Y+14, r25	; 0x0e
    16c6:	8d 87       	std	Y+13, r24	; 0x0d
    16c8:	8f 85       	ldd	r24, Y+15	; 0x0f
    16ca:	98 89       	ldd	r25, Y+16	; 0x10
    16cc:	9a 8b       	std	Y+18, r25	; 0x12
    16ce:	89 8b       	std	Y+17, r24	; 0x11
    16d0:	8f e5       	ldi	r24, 0x5F	; 95
    16d2:	90 e0       	ldi	r25, 0x00	; 0
    16d4:	fc 01       	movw	r30, r24
    16d6:	80 81       	ld	r24, Z
    16d8:	8b 8b       	std	Y+19, r24	; 0x13
    16da:	f8 94       	cli
    16dc:	8d 89       	ldd	r24, Y+21	; 0x15
    16de:	88 23       	and	r24, r24
    16e0:	71 f4       	brne	.+28     	; 0x16fe <digitalWrite+0xdc>
    16e2:	89 89       	ldd	r24, Y+17	; 0x11
    16e4:	9a 89       	ldd	r25, Y+18	; 0x12
    16e6:	fc 01       	movw	r30, r24
    16e8:	80 81       	ld	r24, Z
    16ea:	98 2f       	mov	r25, r24
    16ec:	88 85       	ldd	r24, Y+8	; 0x08
    16ee:	80 95       	com	r24
    16f0:	89 23       	and	r24, r25
    16f2:	28 2f       	mov	r18, r24
    16f4:	89 89       	ldd	r24, Y+17	; 0x11
    16f6:	9a 89       	ldd	r25, Y+18	; 0x12
    16f8:	fc 01       	movw	r30, r24
    16fa:	20 83       	st	Z, r18
    16fc:	0b c0       	rjmp	.+22     	; 0x1714 <digitalWrite+0xf2>
    16fe:	89 89       	ldd	r24, Y+17	; 0x11
    1700:	9a 89       	ldd	r25, Y+18	; 0x12
    1702:	fc 01       	movw	r30, r24
    1704:	90 81       	ld	r25, Z
    1706:	88 85       	ldd	r24, Y+8	; 0x08
    1708:	29 2f       	mov	r18, r25
    170a:	28 2b       	or	r18, r24
    170c:	89 89       	ldd	r24, Y+17	; 0x11
    170e:	9a 89       	ldd	r25, Y+18	; 0x12
    1710:	fc 01       	movw	r30, r24
    1712:	20 83       	st	Z, r18
    1714:	8f e5       	ldi	r24, 0x5F	; 95
    1716:	90 e0       	ldi	r25, 0x00	; 0
    1718:	2b 89       	ldd	r18, Y+19	; 0x13
    171a:	fc 01       	movw	r30, r24
    171c:	20 83       	st	Z, r18
    171e:	65 96       	adiw	r28, 0x15	; 21
    1720:	0f b6       	in	r0, 0x3f	; 63
    1722:	f8 94       	cli
    1724:	de bf       	out	0x3e, r29	; 62
    1726:	0f be       	out	0x3f, r0	; 63
    1728:	cd bf       	out	0x3d, r28	; 61
    172a:	df 91       	pop	r29
    172c:	cf 91       	pop	r28
    172e:	08 95       	ret

00001730 <__divmodhi4>:
    1730:	97 fb       	bst	r25, 7
    1732:	07 2e       	mov	r0, r23
    1734:	16 f4       	brtc	.+4      	; 0x173a <__divmodhi4+0xa>
    1736:	00 94       	com	r0
    1738:	07 d0       	rcall	.+14     	; 0x1748 <__divmodhi4_neg1>
    173a:	77 fd       	sbrc	r23, 7
    173c:	09 d0       	rcall	.+18     	; 0x1750 <__divmodhi4_neg2>
    173e:	0e 94 ed 0b 	call	0x17da	; 0x17da <__udivmodhi4>
    1742:	07 fc       	sbrc	r0, 7
    1744:	05 d0       	rcall	.+10     	; 0x1750 <__divmodhi4_neg2>
    1746:	3e f4       	brtc	.+14     	; 0x1756 <__divmodhi4_exit>

00001748 <__divmodhi4_neg1>:
    1748:	90 95       	com	r25
    174a:	81 95       	neg	r24
    174c:	9f 4f       	sbci	r25, 0xFF	; 255
    174e:	08 95       	ret

00001750 <__divmodhi4_neg2>:
    1750:	70 95       	com	r23
    1752:	61 95       	neg	r22
    1754:	7f 4f       	sbci	r23, 0xFF	; 255

00001756 <__divmodhi4_exit>:
    1756:	08 95       	ret

00001758 <__udivmodsi4>:
    1758:	a1 e2       	ldi	r26, 0x21	; 33
    175a:	1a 2e       	mov	r1, r26
    175c:	aa 1b       	sub	r26, r26
    175e:	bb 1b       	sub	r27, r27
    1760:	fd 01       	movw	r30, r26
    1762:	0d c0       	rjmp	.+26     	; 0x177e <__udivmodsi4_ep>

00001764 <__udivmodsi4_loop>:
    1764:	aa 1f       	adc	r26, r26
    1766:	bb 1f       	adc	r27, r27
    1768:	ee 1f       	adc	r30, r30
    176a:	ff 1f       	adc	r31, r31
    176c:	a2 17       	cp	r26, r18
    176e:	b3 07       	cpc	r27, r19
    1770:	e4 07       	cpc	r30, r20
    1772:	f5 07       	cpc	r31, r21
    1774:	20 f0       	brcs	.+8      	; 0x177e <__udivmodsi4_ep>
    1776:	a2 1b       	sub	r26, r18
    1778:	b3 0b       	sbc	r27, r19
    177a:	e4 0b       	sbc	r30, r20
    177c:	f5 0b       	sbc	r31, r21

0000177e <__udivmodsi4_ep>:
    177e:	66 1f       	adc	r22, r22
    1780:	77 1f       	adc	r23, r23
    1782:	88 1f       	adc	r24, r24
    1784:	99 1f       	adc	r25, r25
    1786:	1a 94       	dec	r1
    1788:	69 f7       	brne	.-38     	; 0x1764 <__udivmodsi4_loop>
    178a:	60 95       	com	r22
    178c:	70 95       	com	r23
    178e:	80 95       	com	r24
    1790:	90 95       	com	r25
    1792:	9b 01       	movw	r18, r22
    1794:	ac 01       	movw	r20, r24
    1796:	bd 01       	movw	r22, r26
    1798:	cf 01       	movw	r24, r30
    179a:	08 95       	ret

0000179c <__divmodsi4>:
    179c:	05 2e       	mov	r0, r21
    179e:	97 fb       	bst	r25, 7
    17a0:	1e f4       	brtc	.+6      	; 0x17a8 <__divmodsi4+0xc>
    17a2:	00 94       	com	r0
    17a4:	0e 94 e5 0b 	call	0x17ca	; 0x17ca <__negsi2>
    17a8:	57 fd       	sbrc	r21, 7
    17aa:	07 d0       	rcall	.+14     	; 0x17ba <__divmodsi4_neg2>
    17ac:	0e 94 ac 0b 	call	0x1758	; 0x1758 <__udivmodsi4>
    17b0:	07 fc       	sbrc	r0, 7
    17b2:	03 d0       	rcall	.+6      	; 0x17ba <__divmodsi4_neg2>
    17b4:	4e f4       	brtc	.+18     	; 0x17c8 <__divmodsi4_exit>
    17b6:	0c 94 e5 0b 	jmp	0x17ca	; 0x17ca <__negsi2>

000017ba <__divmodsi4_neg2>:
    17ba:	50 95       	com	r21
    17bc:	40 95       	com	r20
    17be:	30 95       	com	r19
    17c0:	21 95       	neg	r18
    17c2:	3f 4f       	sbci	r19, 0xFF	; 255
    17c4:	4f 4f       	sbci	r20, 0xFF	; 255
    17c6:	5f 4f       	sbci	r21, 0xFF	; 255

000017c8 <__divmodsi4_exit>:
    17c8:	08 95       	ret

000017ca <__negsi2>:
    17ca:	90 95       	com	r25
    17cc:	80 95       	com	r24
    17ce:	70 95       	com	r23
    17d0:	61 95       	neg	r22
    17d2:	7f 4f       	sbci	r23, 0xFF	; 255
    17d4:	8f 4f       	sbci	r24, 0xFF	; 255
    17d6:	9f 4f       	sbci	r25, 0xFF	; 255
    17d8:	08 95       	ret

000017da <__udivmodhi4>:
    17da:	aa 1b       	sub	r26, r26
    17dc:	bb 1b       	sub	r27, r27
    17de:	51 e1       	ldi	r21, 0x11	; 17
    17e0:	07 c0       	rjmp	.+14     	; 0x17f0 <__udivmodhi4_ep>

000017e2 <__udivmodhi4_loop>:
    17e2:	aa 1f       	adc	r26, r26
    17e4:	bb 1f       	adc	r27, r27
    17e6:	a6 17       	cp	r26, r22
    17e8:	b7 07       	cpc	r27, r23
    17ea:	10 f0       	brcs	.+4      	; 0x17f0 <__udivmodhi4_ep>
    17ec:	a6 1b       	sub	r26, r22
    17ee:	b7 0b       	sbc	r27, r23

000017f0 <__udivmodhi4_ep>:
    17f0:	88 1f       	adc	r24, r24
    17f2:	99 1f       	adc	r25, r25
    17f4:	5a 95       	dec	r21
    17f6:	a9 f7       	brne	.-22     	; 0x17e2 <__udivmodhi4_loop>
    17f8:	80 95       	com	r24
    17fa:	90 95       	com	r25
    17fc:	bc 01       	movw	r22, r24
    17fe:	cd 01       	movw	r24, r26
    1800:	08 95       	ret

00001802 <__tablejump2__>:
    1802:	ee 0f       	add	r30, r30
    1804:	ff 1f       	adc	r31, r31
    1806:	05 90       	lpm	r0, Z+
    1808:	f4 91       	lpm	r31, Z
    180a:	e0 2d       	mov	r30, r0
    180c:	09 94       	ijmp

0000180e <strtol>:
    180e:	a0 e0       	ldi	r26, 0x00	; 0
    1810:	b0 e0       	ldi	r27, 0x00	; 0
    1812:	ed e0       	ldi	r30, 0x0D	; 13
    1814:	fc e0       	ldi	r31, 0x0C	; 12
    1816:	0c 94 4d 0d 	jmp	0x1a9a	; 0x1a9a <__prologue_saves__>
    181a:	5c 01       	movw	r10, r24
    181c:	6b 01       	movw	r12, r22
    181e:	7a 01       	movw	r14, r20
    1820:	61 15       	cp	r22, r1
    1822:	71 05       	cpc	r23, r1
    1824:	19 f0       	breq	.+6      	; 0x182c <strtol+0x1e>
    1826:	fb 01       	movw	r30, r22
    1828:	91 83       	std	Z+1, r25	; 0x01
    182a:	80 83       	st	Z, r24
    182c:	e1 14       	cp	r14, r1
    182e:	f1 04       	cpc	r15, r1
    1830:	29 f0       	breq	.+10     	; 0x183c <strtol+0x2e>
    1832:	c7 01       	movw	r24, r14
    1834:	02 97       	sbiw	r24, 0x02	; 2
    1836:	83 97       	sbiw	r24, 0x23	; 35
    1838:	08 f0       	brcs	.+2      	; 0x183c <strtol+0x2e>
    183a:	f1 c0       	rjmp	.+482    	; 0x1a1e <strtol+0x210>
    183c:	e5 01       	movw	r28, r10
    183e:	21 96       	adiw	r28, 0x01	; 1
    1840:	f5 01       	movw	r30, r10
    1842:	10 81       	ld	r17, Z
    1844:	81 2f       	mov	r24, r17
    1846:	90 e0       	ldi	r25, 0x00	; 0
    1848:	0e 94 1d 0d 	call	0x1a3a	; 0x1a3a <isspace>
    184c:	89 2b       	or	r24, r25
    184e:	11 f0       	breq	.+4      	; 0x1854 <strtol+0x46>
    1850:	5e 01       	movw	r10, r28
    1852:	f4 cf       	rjmp	.-24     	; 0x183c <strtol+0x2e>
    1854:	1d 32       	cpi	r17, 0x2D	; 45
    1856:	29 f4       	brne	.+10     	; 0x1862 <strtol+0x54>
    1858:	21 96       	adiw	r28, 0x01	; 1
    185a:	f5 01       	movw	r30, r10
    185c:	11 81       	ldd	r17, Z+1	; 0x01
    185e:	01 e0       	ldi	r16, 0x01	; 1
    1860:	07 c0       	rjmp	.+14     	; 0x1870 <strtol+0x62>
    1862:	1b 32       	cpi	r17, 0x2B	; 43
    1864:	21 f4       	brne	.+8      	; 0x186e <strtol+0x60>
    1866:	e5 01       	movw	r28, r10
    1868:	22 96       	adiw	r28, 0x02	; 2
    186a:	f5 01       	movw	r30, r10
    186c:	11 81       	ldd	r17, Z+1	; 0x01
    186e:	00 e0       	ldi	r16, 0x00	; 0
    1870:	e1 14       	cp	r14, r1
    1872:	f1 04       	cpc	r15, r1
    1874:	59 f1       	breq	.+86     	; 0x18cc <strtol+0xbe>
    1876:	f0 e1       	ldi	r31, 0x10	; 16
    1878:	ef 16       	cp	r14, r31
    187a:	f1 04       	cpc	r15, r1
    187c:	61 f4       	brne	.+24     	; 0x1896 <strtol+0x88>
    187e:	10 33       	cpi	r17, 0x30	; 48
    1880:	e1 f4       	brne	.+56     	; 0x18ba <strtol+0xac>
    1882:	88 81       	ld	r24, Y
    1884:	8f 7d       	andi	r24, 0xDF	; 223
    1886:	88 35       	cpi	r24, 0x58	; 88
    1888:	69 f5       	brne	.+90     	; 0x18e4 <strtol+0xd6>
    188a:	19 81       	ldd	r17, Y+1	; 0x01
    188c:	22 96       	adiw	r28, 0x02	; 2
    188e:	02 60       	ori	r16, 0x02	; 2
    1890:	70 e1       	ldi	r23, 0x10	; 16
    1892:	e7 2e       	mov	r14, r23
    1894:	f1 2c       	mov	r15, r1
    1896:	88 e0       	ldi	r24, 0x08	; 8
    1898:	e8 16       	cp	r14, r24
    189a:	f1 04       	cpc	r15, r1
    189c:	39 f1       	breq	.+78     	; 0x18ec <strtol+0xde>
    189e:	2c f4       	brge	.+10     	; 0x18aa <strtol+0x9c>
    18a0:	f2 e0       	ldi	r31, 0x02	; 2
    18a2:	ef 16       	cp	r14, r31
    18a4:	f1 04       	cpc	r15, r1
    18a6:	c9 f1       	breq	.+114    	; 0x191a <strtol+0x10c>
    18a8:	2a c0       	rjmp	.+84     	; 0x18fe <strtol+0xf0>
    18aa:	8a e0       	ldi	r24, 0x0A	; 10
    18ac:	e8 16       	cp	r14, r24
    18ae:	f1 04       	cpc	r15, r1
    18b0:	79 f0       	breq	.+30     	; 0x18d0 <strtol+0xc2>
    18b2:	e0 e1       	ldi	r30, 0x10	; 16
    18b4:	ee 16       	cp	r14, r30
    18b6:	f1 04       	cpc	r15, r1
    18b8:	11 f5       	brne	.+68     	; 0x18fe <strtol+0xf0>
    18ba:	50 e1       	ldi	r21, 0x10	; 16
    18bc:	e5 2e       	mov	r14, r21
    18be:	f1 2c       	mov	r15, r1
    18c0:	81 2c       	mov	r8, r1
    18c2:	91 2c       	mov	r9, r1
    18c4:	a1 2c       	mov	r10, r1
    18c6:	68 e0       	ldi	r22, 0x08	; 8
    18c8:	b6 2e       	mov	r11, r22
    18ca:	2c c0       	rjmp	.+88     	; 0x1924 <strtol+0x116>
    18cc:	10 33       	cpi	r17, 0x30	; 48
    18ce:	c9 f2       	breq	.-78     	; 0x1882 <strtol+0x74>
    18d0:	3a e0       	ldi	r19, 0x0A	; 10
    18d2:	e3 2e       	mov	r14, r19
    18d4:	f1 2c       	mov	r15, r1
    18d6:	4c ec       	ldi	r20, 0xCC	; 204
    18d8:	84 2e       	mov	r8, r20
    18da:	98 2c       	mov	r9, r8
    18dc:	a8 2c       	mov	r10, r8
    18de:	4c e0       	ldi	r20, 0x0C	; 12
    18e0:	b4 2e       	mov	r11, r20
    18e2:	20 c0       	rjmp	.+64     	; 0x1924 <strtol+0x116>
    18e4:	10 e3       	ldi	r17, 0x30	; 48
    18e6:	e1 14       	cp	r14, r1
    18e8:	f1 04       	cpc	r15, r1
    18ea:	a9 f6       	brne	.-86     	; 0x1896 <strtol+0x88>
    18ec:	98 e0       	ldi	r25, 0x08	; 8
    18ee:	e9 2e       	mov	r14, r25
    18f0:	f1 2c       	mov	r15, r1
    18f2:	81 2c       	mov	r8, r1
    18f4:	91 2c       	mov	r9, r1
    18f6:	a1 2c       	mov	r10, r1
    18f8:	20 e1       	ldi	r18, 0x10	; 16
    18fa:	b2 2e       	mov	r11, r18
    18fc:	13 c0       	rjmp	.+38     	; 0x1924 <strtol+0x116>
    18fe:	60 e0       	ldi	r22, 0x00	; 0
    1900:	70 e0       	ldi	r23, 0x00	; 0
    1902:	80 e0       	ldi	r24, 0x00	; 0
    1904:	90 e8       	ldi	r25, 0x80	; 128
    1906:	97 01       	movw	r18, r14
    1908:	0f 2c       	mov	r0, r15
    190a:	00 0c       	add	r0, r0
    190c:	44 0b       	sbc	r20, r20
    190e:	55 0b       	sbc	r21, r21
    1910:	0e 94 ac 0b 	call	0x1758	; 0x1758 <__udivmodsi4>
    1914:	49 01       	movw	r8, r18
    1916:	5a 01       	movw	r10, r20
    1918:	05 c0       	rjmp	.+10     	; 0x1924 <strtol+0x116>
    191a:	81 2c       	mov	r8, r1
    191c:	91 2c       	mov	r9, r1
    191e:	a1 2c       	mov	r10, r1
    1920:	80 e4       	ldi	r24, 0x40	; 64
    1922:	b8 2e       	mov	r11, r24
    1924:	60 e0       	ldi	r22, 0x00	; 0
    1926:	20 e0       	ldi	r18, 0x00	; 0
    1928:	30 e0       	ldi	r19, 0x00	; 0
    192a:	a9 01       	movw	r20, r18
    192c:	27 01       	movw	r4, r14
    192e:	0f 2c       	mov	r0, r15
    1930:	00 0c       	add	r0, r0
    1932:	66 08       	sbc	r6, r6
    1934:	77 08       	sbc	r7, r7
    1936:	1e 01       	movw	r2, r28
    1938:	e0 ed       	ldi	r30, 0xD0	; 208
    193a:	e1 0f       	add	r30, r17
    193c:	ea 30       	cpi	r30, 0x0A	; 10
    193e:	60 f0       	brcs	.+24     	; 0x1958 <strtol+0x14a>
    1940:	8f eb       	ldi	r24, 0xBF	; 191
    1942:	81 0f       	add	r24, r17
    1944:	8a 31       	cpi	r24, 0x1A	; 26
    1946:	10 f4       	brcc	.+4      	; 0x194c <strtol+0x13e>
    1948:	e9 ec       	ldi	r30, 0xC9	; 201
    194a:	05 c0       	rjmp	.+10     	; 0x1956 <strtol+0x148>
    194c:	8f e9       	ldi	r24, 0x9F	; 159
    194e:	81 0f       	add	r24, r17
    1950:	8a 31       	cpi	r24, 0x1A	; 26
    1952:	28 f5       	brcc	.+74     	; 0x199e <strtol+0x190>
    1954:	e9 ea       	ldi	r30, 0xA9	; 169
    1956:	e1 0f       	add	r30, r17
    1958:	8e 2f       	mov	r24, r30
    195a:	90 e0       	ldi	r25, 0x00	; 0
    195c:	8e 15       	cp	r24, r14
    195e:	9f 05       	cpc	r25, r15
    1960:	f4 f4       	brge	.+60     	; 0x199e <strtol+0x190>
    1962:	67 fd       	sbrc	r22, 7
    1964:	18 c0       	rjmp	.+48     	; 0x1996 <strtol+0x188>
    1966:	82 16       	cp	r8, r18
    1968:	93 06       	cpc	r9, r19
    196a:	a4 06       	cpc	r10, r20
    196c:	b5 06       	cpc	r11, r21
    196e:	90 f0       	brcs	.+36     	; 0x1994 <strtol+0x186>
    1970:	c3 01       	movw	r24, r6
    1972:	b2 01       	movw	r22, r4
    1974:	0e 94 32 0d 	call	0x1a64	; 0x1a64 <__mulsi3>
    1978:	9b 01       	movw	r18, r22
    197a:	ac 01       	movw	r20, r24
    197c:	2e 0f       	add	r18, r30
    197e:	31 1d       	adc	r19, r1
    1980:	41 1d       	adc	r20, r1
    1982:	51 1d       	adc	r21, r1
    1984:	21 30       	cpi	r18, 0x01	; 1
    1986:	31 05       	cpc	r19, r1
    1988:	41 05       	cpc	r20, r1
    198a:	f0 e8       	ldi	r31, 0x80	; 128
    198c:	5f 07       	cpc	r21, r31
    198e:	10 f4       	brcc	.+4      	; 0x1994 <strtol+0x186>
    1990:	61 e0       	ldi	r22, 0x01	; 1
    1992:	01 c0       	rjmp	.+2      	; 0x1996 <strtol+0x188>
    1994:	6f ef       	ldi	r22, 0xFF	; 255
    1996:	21 96       	adiw	r28, 0x01	; 1
    1998:	f1 01       	movw	r30, r2
    199a:	10 81       	ld	r17, Z
    199c:	cc cf       	rjmp	.-104    	; 0x1936 <strtol+0x128>
    199e:	80 2f       	mov	r24, r16
    19a0:	81 70       	andi	r24, 0x01	; 1
    19a2:	c1 14       	cp	r12, r1
    19a4:	d1 04       	cpc	r13, r1
    19a6:	71 f0       	breq	.+28     	; 0x19c4 <strtol+0x1b6>
    19a8:	66 23       	and	r22, r22
    19aa:	29 f0       	breq	.+10     	; 0x19b6 <strtol+0x1a8>
    19ac:	21 97       	sbiw	r28, 0x01	; 1
    19ae:	f6 01       	movw	r30, r12
    19b0:	d1 83       	std	Z+1, r29	; 0x01
    19b2:	c0 83       	st	Z, r28
    19b4:	07 c0       	rjmp	.+14     	; 0x19c4 <strtol+0x1b6>
    19b6:	01 ff       	sbrs	r16, 1
    19b8:	19 c0       	rjmp	.+50     	; 0x19ec <strtol+0x1de>
    19ba:	22 97       	sbiw	r28, 0x02	; 2
    19bc:	f6 01       	movw	r30, r12
    19be:	d1 83       	std	Z+1, r29	; 0x01
    19c0:	c0 83       	st	Z, r28
    19c2:	14 c0       	rjmp	.+40     	; 0x19ec <strtol+0x1de>
    19c4:	67 ff       	sbrs	r22, 7
    19c6:	12 c0       	rjmp	.+36     	; 0x19ec <strtol+0x1de>
    19c8:	81 11       	cpse	r24, r1
    19ca:	05 c0       	rjmp	.+10     	; 0x19d6 <strtol+0x1c8>
    19cc:	2f ef       	ldi	r18, 0xFF	; 255
    19ce:	3f ef       	ldi	r19, 0xFF	; 255
    19d0:	4f ef       	ldi	r20, 0xFF	; 255
    19d2:	5f e7       	ldi	r21, 0x7F	; 127
    19d4:	04 c0       	rjmp	.+8      	; 0x19de <strtol+0x1d0>
    19d6:	20 e0       	ldi	r18, 0x00	; 0
    19d8:	30 e0       	ldi	r19, 0x00	; 0
    19da:	40 e0       	ldi	r20, 0x00	; 0
    19dc:	50 e8       	ldi	r21, 0x80	; 128
    19de:	82 e2       	ldi	r24, 0x22	; 34
    19e0:	90 e0       	ldi	r25, 0x00	; 0
    19e2:	90 93 70 03 	sts	0x0370, r25
    19e6:	80 93 6f 03 	sts	0x036F, r24
    19ea:	16 c0       	rjmp	.+44     	; 0x1a18 <strtol+0x20a>
    19ec:	88 23       	and	r24, r24
    19ee:	41 f0       	breq	.+16     	; 0x1a00 <strtol+0x1f2>
    19f0:	50 95       	com	r21
    19f2:	40 95       	com	r20
    19f4:	30 95       	com	r19
    19f6:	21 95       	neg	r18
    19f8:	3f 4f       	sbci	r19, 0xFF	; 255
    19fa:	4f 4f       	sbci	r20, 0xFF	; 255
    19fc:	5f 4f       	sbci	r21, 0xFF	; 255
    19fe:	0c c0       	rjmp	.+24     	; 0x1a18 <strtol+0x20a>
    1a00:	57 ff       	sbrs	r21, 7
    1a02:	0a c0       	rjmp	.+20     	; 0x1a18 <strtol+0x20a>
    1a04:	82 e2       	ldi	r24, 0x22	; 34
    1a06:	90 e0       	ldi	r25, 0x00	; 0
    1a08:	90 93 70 03 	sts	0x0370, r25
    1a0c:	80 93 6f 03 	sts	0x036F, r24
    1a10:	2f ef       	ldi	r18, 0xFF	; 255
    1a12:	3f ef       	ldi	r19, 0xFF	; 255
    1a14:	4f ef       	ldi	r20, 0xFF	; 255
    1a16:	5f e7       	ldi	r21, 0x7F	; 127
    1a18:	b9 01       	movw	r22, r18
    1a1a:	ca 01       	movw	r24, r20
    1a1c:	04 c0       	rjmp	.+8      	; 0x1a26 <strtol+0x218>
    1a1e:	60 e0       	ldi	r22, 0x00	; 0
    1a20:	70 e0       	ldi	r23, 0x00	; 0
    1a22:	80 e0       	ldi	r24, 0x00	; 0
    1a24:	90 e0       	ldi	r25, 0x00	; 0
    1a26:	cd b7       	in	r28, 0x3d	; 61
    1a28:	de b7       	in	r29, 0x3e	; 62
    1a2a:	e2 e1       	ldi	r30, 0x12	; 18
    1a2c:	0c 94 69 0d 	jmp	0x1ad2	; 0x1ad2 <__epilogue_restores__>

00001a30 <abort>:
    1a30:	81 e0       	ldi	r24, 0x01	; 1
    1a32:	90 e0       	ldi	r25, 0x00	; 0
    1a34:	f8 94       	cli
    1a36:	0c 94 93 0d 	jmp	0x1b26	; 0x1b26 <__do_global_dtors>

00001a3a <isspace>:
    1a3a:	91 11       	cpse	r25, r1
    1a3c:	0c 94 2f 0d 	jmp	0x1a5e	; 0x1a5e <__ctype_isfalse>
    1a40:	80 32       	cpi	r24, 0x20	; 32
    1a42:	19 f0       	breq	.+6      	; 0x1a4a <isspace+0x10>
    1a44:	89 50       	subi	r24, 0x09	; 9
    1a46:	85 50       	subi	r24, 0x05	; 5
    1a48:	c8 f7       	brcc	.-14     	; 0x1a3c <isspace+0x2>
    1a4a:	08 95       	ret

00001a4c <strlen>:
    1a4c:	fc 01       	movw	r30, r24
    1a4e:	01 90       	ld	r0, Z+
    1a50:	00 20       	and	r0, r0
    1a52:	e9 f7       	brne	.-6      	; 0x1a4e <strlen+0x2>
    1a54:	80 95       	com	r24
    1a56:	90 95       	com	r25
    1a58:	8e 0f       	add	r24, r30
    1a5a:	9f 1f       	adc	r25, r31
    1a5c:	08 95       	ret

00001a5e <__ctype_isfalse>:
    1a5e:	99 27       	eor	r25, r25
    1a60:	88 27       	eor	r24, r24

00001a62 <__ctype_istrue>:
    1a62:	08 95       	ret

00001a64 <__mulsi3>:
    1a64:	db 01       	movw	r26, r22
    1a66:	8f 93       	push	r24
    1a68:	9f 93       	push	r25
    1a6a:	0e 94 42 0d 	call	0x1a84	; 0x1a84 <__muluhisi3>
    1a6e:	bf 91       	pop	r27
    1a70:	af 91       	pop	r26
    1a72:	a2 9f       	mul	r26, r18
    1a74:	80 0d       	add	r24, r0
    1a76:	91 1d       	adc	r25, r1
    1a78:	a3 9f       	mul	r26, r19
    1a7a:	90 0d       	add	r25, r0
    1a7c:	b2 9f       	mul	r27, r18
    1a7e:	90 0d       	add	r25, r0
    1a80:	11 24       	eor	r1, r1
    1a82:	08 95       	ret

00001a84 <__muluhisi3>:
    1a84:	0e 94 84 0d 	call	0x1b08	; 0x1b08 <__umulhisi3>
    1a88:	a5 9f       	mul	r26, r21
    1a8a:	90 0d       	add	r25, r0
    1a8c:	b4 9f       	mul	r27, r20
    1a8e:	90 0d       	add	r25, r0
    1a90:	a4 9f       	mul	r26, r20
    1a92:	80 0d       	add	r24, r0
    1a94:	91 1d       	adc	r25, r1
    1a96:	11 24       	eor	r1, r1
    1a98:	08 95       	ret

00001a9a <__prologue_saves__>:
    1a9a:	2f 92       	push	r2
    1a9c:	3f 92       	push	r3
    1a9e:	4f 92       	push	r4
    1aa0:	5f 92       	push	r5
    1aa2:	6f 92       	push	r6
    1aa4:	7f 92       	push	r7
    1aa6:	8f 92       	push	r8
    1aa8:	9f 92       	push	r9
    1aaa:	af 92       	push	r10
    1aac:	bf 92       	push	r11
    1aae:	cf 92       	push	r12
    1ab0:	df 92       	push	r13
    1ab2:	ef 92       	push	r14
    1ab4:	ff 92       	push	r15
    1ab6:	0f 93       	push	r16
    1ab8:	1f 93       	push	r17
    1aba:	cf 93       	push	r28
    1abc:	df 93       	push	r29
    1abe:	cd b7       	in	r28, 0x3d	; 61
    1ac0:	de b7       	in	r29, 0x3e	; 62
    1ac2:	ca 1b       	sub	r28, r26
    1ac4:	db 0b       	sbc	r29, r27
    1ac6:	0f b6       	in	r0, 0x3f	; 63
    1ac8:	f8 94       	cli
    1aca:	de bf       	out	0x3e, r29	; 62
    1acc:	0f be       	out	0x3f, r0	; 63
    1ace:	cd bf       	out	0x3d, r28	; 61
    1ad0:	09 94       	ijmp

00001ad2 <__epilogue_restores__>:
    1ad2:	2a 88       	ldd	r2, Y+18	; 0x12
    1ad4:	39 88       	ldd	r3, Y+17	; 0x11
    1ad6:	48 88       	ldd	r4, Y+16	; 0x10
    1ad8:	5f 84       	ldd	r5, Y+15	; 0x0f
    1ada:	6e 84       	ldd	r6, Y+14	; 0x0e
    1adc:	7d 84       	ldd	r7, Y+13	; 0x0d
    1ade:	8c 84       	ldd	r8, Y+12	; 0x0c
    1ae0:	9b 84       	ldd	r9, Y+11	; 0x0b
    1ae2:	aa 84       	ldd	r10, Y+10	; 0x0a
    1ae4:	b9 84       	ldd	r11, Y+9	; 0x09
    1ae6:	c8 84       	ldd	r12, Y+8	; 0x08
    1ae8:	df 80       	ldd	r13, Y+7	; 0x07
    1aea:	ee 80       	ldd	r14, Y+6	; 0x06
    1aec:	fd 80       	ldd	r15, Y+5	; 0x05
    1aee:	0c 81       	ldd	r16, Y+4	; 0x04
    1af0:	1b 81       	ldd	r17, Y+3	; 0x03
    1af2:	aa 81       	ldd	r26, Y+2	; 0x02
    1af4:	b9 81       	ldd	r27, Y+1	; 0x01
    1af6:	ce 0f       	add	r28, r30
    1af8:	d1 1d       	adc	r29, r1
    1afa:	0f b6       	in	r0, 0x3f	; 63
    1afc:	f8 94       	cli
    1afe:	de bf       	out	0x3e, r29	; 62
    1b00:	0f be       	out	0x3f, r0	; 63
    1b02:	cd bf       	out	0x3d, r28	; 61
    1b04:	ed 01       	movw	r28, r26
    1b06:	08 95       	ret

00001b08 <__umulhisi3>:
    1b08:	a2 9f       	mul	r26, r18
    1b0a:	b0 01       	movw	r22, r0
    1b0c:	b3 9f       	mul	r27, r19
    1b0e:	c0 01       	movw	r24, r0
    1b10:	a3 9f       	mul	r26, r19
    1b12:	70 0d       	add	r23, r0
    1b14:	81 1d       	adc	r24, r1
    1b16:	11 24       	eor	r1, r1
    1b18:	91 1d       	adc	r25, r1
    1b1a:	b2 9f       	mul	r27, r18
    1b1c:	70 0d       	add	r23, r0
    1b1e:	81 1d       	adc	r24, r1
    1b20:	11 24       	eor	r1, r1
    1b22:	91 1d       	adc	r25, r1
    1b24:	08 95       	ret

00001b26 <__do_global_dtors>:
    1b26:	10 e0       	ldi	r17, 0x00	; 0
    1b28:	c3 e6       	ldi	r28, 0x63	; 99
    1b2a:	d0 e0       	ldi	r29, 0x00	; 0
    1b2c:	04 c0       	rjmp	.+8      	; 0x1b36 <__do_global_dtors+0x10>
    1b2e:	fe 01       	movw	r30, r28
    1b30:	0e 94 01 0c 	call	0x1802	; 0x1802 <__tablejump2__>
    1b34:	21 96       	adiw	r28, 0x01	; 1
    1b36:	c4 36       	cpi	r28, 0x64	; 100
    1b38:	d1 07       	cpc	r29, r17
    1b3a:	c9 f7       	brne	.-14     	; 0x1b2e <__do_global_dtors+0x8>
    1b3c:	f8 94       	cli

00001b3e <__stop_program>:
    1b3e:	ff cf       	rjmp	.-2      	; 0x1b3e <__stop_program>
